(lp0
Vsonja
p1
aVaskew
p2
aVwoods
p3
aVspiders
p4
aVbazooms
p5
aVhanging
p6
aVfrancesca
p7
aVcomically
p8
aVlocalized
p9
aVdisobeying
p10
aVhennings
p11
aVcanet
p12
aVscold
p13
aVoriginality
p14
aVcaned
p15
aVrickman
p16
aVslothful
p17
aVwracked
p18
aVstipulate
p19
aVcapoeira
p20
aVrawhide
p21
aVtaj
p22
aVbringing
p23
aVunsworth
p24
aVliaisons
p25
aVgrueling
p26
aVsommerset
p27
aVwooden
p28
aVwednesday
p29
aVbroiled
p30
aVcircuitry
p31
aVcrotch
p32
aVelgar
p33
aVstereotypical
p34
aVshows
p35
aVgavan
p36
aVrebuilding
p37
aVsnuggles
p38
aVfrancesco
p39
aVfeasibility
p40
aVminiatures
p41
aVgorman
p42
aVwoody
p43
aVconsenting
p44
aVscraped
p45
aVinanimate
p46
aVerrors
p47
aVreopens
p48
aVcooking
p49
aVfonzie
p50
aVopportunists
p51
aVislamic
p52
aVjoely
p53
aVdesigning
p54
aVnumeral
p55
aVsuccumb
p56
aVshocks
p57
aVchins
p58
aVcrooned
p59
aVjubilantly
p60
aVrocque
p61
aVching
p62
aVchina
p63
aVshandling
p64
aVconfronts
p65
aVwiseguy
p66
aVnatured
p67
aVexistentialist
p68
aVkids
p69
aVuplifting
p70
aVcontroversy
p71
aVcrowdpleasing
p72
aVneurologist
p73
aVspotty
p74
aVclimber
p75
aVappropriately
p76
aVcobblers
p77
aVprojection
p78
aVoutraging
p79
aVlengthen
p80
aVemerich
p81
aVunsinkable
p82
aVstern
p83
aVkethcum
p84
aVdna
p85
aVcatchy
p86
aVinsecurity
p87
aVcannibal
p88
aVsidebars
p89
aVmusic
p90
aVtherefore
p91
aVmystic
p92
aVmutinies
p93
aVmagyuver
p94
aVdeloreans
p95
aVmesmerize
p96
aVyahoo
p97
aVfaceted
p98
aVexuberantly
p99
aV======
p100
aVeggar
p101
aVboorman
p102
aVforegrounds
p103
aVprimeval
p104
aVvoicework
p105
aVcircumstances
p106
aVreingold
p107
aVmorally
p108
aVlocked
p109
aVdaqughter
p110
aVlocker
p111
aVlocket
p112
aVsoundbite
p113
aVgershon
p114
aVtomahawk
p115
aVmatilda
p116
aVwang
p117
aVwane
p118
aVunjust
p119
aVpooper
p120
aVdishearteningly
p121
aVwant
p122
aVpinto
p123
aVabsolute
p124
aVvicent
p125
aVbeyer
p126
aVtravel
p127
aVcopious
p128
aVplayback
p129
aVdangerfield
p130
aVdared
p131
aVprostitues
p132
aVcadence
p133
aVthivisol
p134
aVsonorra
p135
aVdinosaurs
p136
aVwrong
p137
aVcerebrally
p138
aVsentencing
p139
aVdomed
p140
aVcolorfully
p141
aVglenne
p142
aVrecombination
p143
aVsubplots
p144
aVsickening
p145
aVtulip
p146
aV18th
p147
aVperpetrator
p148
aVcrackin
p149
aVnonsensical
p150
aVromper
p151
aVdisengaging
p152
aVsnugly
p153
aVkuei
p154
aVwelcomed
p155
aVconcurrence
p156
aVstoicism
p157
aVwhizzing
p158
aVdethroned
p159
aVsidekicks
p160
aVrewarded
p161
aVwelcomes
p162
aVhypnotist
p163
aVwickedly
p164
aVfit
p165
aVlifeline
p166
aVscreaming
p167
aVfix
p168
aV_i_know_what_you_did_last_summer_
p169
aVfig
p170
aVwales
p171
aVbunker
p172
aVfin
p173
aVzucker
p174
aVsongwriter
p175
aVmunicipality
p176
aVrecollections
p177
aVguiler
p178
aVeffects
p179
aVmultidimensional
p180
aVsixteen
p181
aVundeveloped
p182
aVsaddened
p183
aVwhacking
p184
aVbartok
p185
aVbarton
p186
aVforegin
p187
aVsugarplums
p188
aVfrewer
p189
aVarrow
p190
aVingrid
p191
aV_eve
p192
aVwindmill
p193
aVtelescope
p194
aVallah
p195
aVallan
p196
aVparasites
p197
aVtouts
p198
aVoprah
p199
aVsmirk
p200
aVscrumptiously
p201
aVindiscretion
p202
aVnordoff
p203
aVmason
p204
aVencourage
p205
aVadapt
p206
aVzellwegger
p207
aVoutburst
p208
aVabbott
p209
aVstamping
p210
aVabbots
p211
aVanonymously
p212
aVberistain
p213
aVpumpkins
p214
aVcorrects
p215
aVestimate
p216
aVuniversally
p217
aVchlorine
p218
aVjugs
p219
aVreiser
p220
aVsickeningly
p221
aVmackey
p222
aVdisturbed
p223
aVcompeted
p224
aVdentures
p225
aVloudness
p226
aVwiseguys
p227
aVjuergen
p228
aVdisfigured
p229
aVstylistics
p230
aVkfc
p231
aVmegabytes
p232
aVsooty
p233
aVdavidovitch
p234
aVolds
p235
aVrenovated
p236
aVservice
p237
aVforrester
p238
aVcorsucant
p239
aVreuben
p240
aVneeded
p241
aVmaster
p242
aV_2001_
p243
aVcritter
p244
aVgenesis
p245
aVweendigo
p246
aVcaitlyn
p247
aVrewards
p248
aVenthrall
p249
aVoingo
p250
aVdoreen
p251
aVmutilated
p252
aVlyndon
p253
aVpositively
p254
aVahmed
p255
aVbannister
p256
aVhandcuffs
p257
aVmeditative
p258
aVidly
p259
aVidle
p260
aVexclaimed
p261
aVfriend
p262
aVfeeling
p263
aVlongs
p264
aVsustaining
p265
aVspectrum
p266
aVlongo
p267
aVcoachmen
p268
aVarousal
p269
aVurinate
p270
aVdozen
p271
aVaffairs
p272
aVwholesome
p273
aVcourier
p274
aVportillo
p275
aVuncouth
p276
aVracers
p277
aVtoothed
p278
aVworkmates
p279
aVshipments
p280
aVcommitting
p281
aVlimitless
p282
aVdiminishing
p283
aVvexing
p284
aVcinematic
p285
aVresonates
p286
aVdisjointed
p287
aVmouth
p288
aVreverence
p289
aVresonated
p290
aVexpound
p291
aVsinger
p292
aVmultiracial
p293
aVtech
p294
aVfugitives
p295
aVkeeble
p296
aVrayden
p297
aVscream
p298
aVsaying
p299
aVteresa
p300
aVloitered
p301
aVpadded
p302
aVulcer
p303
aVtempted
p304
aVcheaply
p305
aVthai
p306
aVhounded
p307
aVorleans
p308
aVclicked
p309
aVrico
p310
aVbliss
p311
aVrick
p312
aVrich
p313
aVrice
p314
aVrica
p315
aVplate
p316
aVremaning
p317
aVvideodrome
p318
aVoutfielders
p319
aVplath
p320
aVplatt
p321
aVclumsiness
p322
aValtogether
p323
aVchyron
p324
aVdroning
p325
aVstoically
p326
aVnicely
p327
aVboarder
p328
aVpretzel
p329
aVpatch
p330
aVeyelids
p331
aVdodie
p332
aVboarded
p333
aVjovivich
p334
aVheirloom
p335
aVclarified
p336
aVsensitivity
p337
aVpinon
p338
aVslashfest
p339
aV48th
p340
aVplayfulness
p341
aVdeadpan
p342
aVirs
p343
aVdroves
p344
aVbandaras
p345
aVira
p346
aVire
p347
aVwage
p348
aVdethrones
p349
aVextend
p350
aVnature
p351
aVlapping
p352
aVextent
p353
aVreacquaints
p354
aVtyranny
p355
aVbenigness
p356
aVveer
p357
aVvoyeuristic
p358
aVhimalayas
p359
aVincense
p360
aVfruity
p361
aVlookin
p362
aVmelinda
p363
aVfearlessly
p364
aVeradicate
p365
aVzigged
p366
aVrehash
p367
aVmortified
p368
aVmaclaine
p369
aVgopher
p370
aVgypsies
p371
aVfondled
p372
aVcharnel
p373
aVaffiliated
p374
aVsurname
p375
aVblonde
p376
aVunderdone
p377
aVmilquetoast
p378
aVmarshmallows
p379
aVunion
p380
aVfro
p381
aVstudious
p382
aV.
p383
aVmuck
p384
aVmuch
p385
aVwyman
p386
aVtonino
p387
aVfry
p388
aVtoning
p389
aVocious
p390
aVobese
p391
aVpremier
p392
aVretrospect
p393
aVspit
p394
aVarkin
p395
aVfreehold
p396
aValmasy
p397
aVboardroom
p398
aVdave
p399
aVyugoslavians
p400
aVdoubts
p401
aVspin
p402
aVprofessionally
p403
aVparaglider
p404
aVemploy
p405
aVnfeatured
p406
aVmisconstrued
p407
aVprostrate
p408
aVk
p409
aVcanoeing
p410
aVditching
p411
aVverges
p412
aVlackies
p413
aVmirabella
p414
aVeighteen
p415
aVhaplessly
p416
aVoxymoron
p417
aVbreakfast
p418
aVhone
p419
aVprotovision
p420
aVhong
p421
aVemmylou
p422
aVinventively
p423
aVportobello
p424
aVremand
p425
aVmummified
p426
aVhonk
p427
aVspews
p428
aVsplit
p429
aVcodename
p430
aVprincipals
p431
aVcavanaugh
p432
aVboiled
p433
aVeffortlessly
p434
aVissac
p435
aVfrenchmen
p436
aVvivien
p437
aVtorpedoes
p438
aVmarched
p439
aVbuliwyf
p440
aVboiler
p441
aVrulebook
p442
aVfeatherweight
p443
aVhoosiers
p444
aVnoblewoman
p445
aVmentors
p446
aVacademic
p447
aVstillness
p448
aVacademia
p449
aVgoofing
p450
aVodile
p451
aVwaitering
p452
aVcorporate
p453
aVmassaging
p454
aVfalstaff
p455
aVgigolo
p456
aVbelloq
p457
aVabsurdities
p458
aVgolden
p459
aVbacri
p460
aV_would_
p461
aVhomogeneity
p462
aVsnickered
p463
aVboondocks
p464
aVportrayed
p465
aVlasso
p466
aVhai
p467
aVhal
p468
aVham
p469
aVhan
p470
aVhab
p471
aVespouses
p472
aVhad
p473
aVinsubordination
p474
aVhag
p475
aVhay
p476
aVmcnamara
p477
aVbeloved
p478
aVhap
p479
aVhar
p480
aVhas
p481
aVhat
p482
aVpreciously
p483
aVhav
p484
aVhaw
p485
aVelders
p486
aVsurvival
p487
aVunequivocally
p488
aVotherworldly
p489
aVindicative
p490
aVshadow
p491
aVflotsam
p492
aVballhaus
p493
aVsleuthing
p494
aVdelectably
p495
aValice
p496
aVnoteables
p497
aVfestivities
p498
aVmisdemeanors
p499
aVunabashedly
p500
aVattorney
p501
aVcrowd
p502
aVcrowe
p503
aVczech
p504
aVmosques
p505
aVcrown
p506
aVtopping
p507
aVdeflection
p508
aVcaptive
p509
aVbeatng
p510
aVbillboard
p511
aVnamuth
p512
aVpesimism
p513
aVbottom
p514
aVchabert
p515
aVinhuman
p516
aVplucked
p517
aVcrookier
p518
aVmonogamy
p519
aVseagrave
p520
aVsubkoff
p521
aVunequipped
p522
aVrooker
p523
aVbarcode
p524
aVeduard
p525
aVstarring
p526
aVmediocrity
p527
aVdisdains
p528
aVbamboo
p529
aVstoker
p530
aVcaraciture
p531
aVrestlessness
p532
aVbenches
p533
aVfilmcritic
p534
aVbicentennial
p535
aVoneness
p536
aVmussenden
p537
aVstoked
p538
aVwhoaaaaaa
p539
aVkilgore
p540
aVdahlings
p541
aVmaxwell
p542
aVmarshall
p543
aVhoneymoon
p544
aVmba
p545
aVliebes
p546
aVbeings
p547
aVmarshals
p548
aVhallucinogenic
p549
aVshoots
p550
aVaggressivelly
p551
aVdespised
p552
aVfabric
p553
aV_people_
p554
aVsuffice
p555
aVraped
p556
aVgrasping
p557
aVdespises
p558
aVgreatness
p559
aVrapes
p560
aVgrooms
p561
aVspurting
p562
aVballisitic
p563
aVcongratulations
p564
aVhypsy
p565
aVhumbled
p566
aVmat
p567
aVmasquerading
p568
aVwacked
p569
aVsmashes
p570
aV1600s
p571
aVhumbler
p572
aVcomplications
p573
aVsmashed
p574
aVduet
p575
aVdues
p576
aVpassenger
p577
aVdisgrace
p578
aVbarrymore
p579
aVminah
p580
aVunnerve
p581
aVyankovich
p582
aVdecapitation
p583
aVpaperwork
p584
aVtriangles
p585
aVslurring
p586
aVspacemusic
p587
aVbiederman
p588
aVdowling
p589
aVcambodia
p590
aVrioters
p591
aVpasadena
p592
aVrole
p593
aVobliges
p594
aVrolf
p595
aVwreaked
p596
aVvegetative
p597
aVwordlessly
p598
aVroll
p599
aVspielbergization
p600
aVintend
p601
aVpalms
p602
aVslaver
p603
aVtransported
p604
aVpalme
p605
aVcomely
p606
aVintent
p607
aVsmelling
p608
aVvariable
p609
aVbatmans
p610
aVhawkes
p611
aVexplosions
p612
aVloren
p613
aVmeteorologist
p614
aVshootout
p615
aVinnuendos
p616
aVoverturned
p617
aVgown
p618
aVchilds
p619
aVcincinnati
p620
aVchain
p621
aVwhoever
p622
aVdiggler
p623
aVbandits
p624
aVchair
p625
aVmacht
p626
aVballet
p627
aVmalintentioned
p628
aVgrapples
p629
aVpell
p630
aVafi
p631
aVfreelance
p632
aVcrates
p633
aVcrater
p634
aVsilencers
p635
aVunderlining
p636
aVoverpopulated
p637
aVobssessed
p638
aVmacho
p639
aVoversight
p640
aVtenacious
p641
aVdownloading
p642
aVpaychecks
p643
aVjerk
p644
aVtastefully
p645
aVjere
p646
aVprancer
p647
aVprances
p648
aVchoice
p649
aVmetamorphoses
p650
aVembark
p651
aVgloomy
p652
aVghostbusters
p653
aVstays
p654
aVexact
p655
aVminute
p656
aVcooks
p657
aVmasturbates
p658
aVminnie
p659
aVskewed
p660
aVskewer
p661
aVxenophobe
p662
aVdialogueless
p663
aVtrails
p664
aVcopyrighted
p665
aVheavyweight
p666
aVchopping
p667
aVshirts
p668
aVogled
p669
aVheadset
p670
aVlavishness
p671
aVmassironi
p672
aVantwerp
p673
aVcelebrated
p674
aVwayward
p675
aVgeography
p676
aVcelebrates
p677
aVunintentionally
p678
aVdrafted
p679
aVoldies
p680
aVclimbs
p681
aVblunted
p682
aVtopicality
p683
aVgladys
p684
aVaddress
p685
aVreclining
p686
aVdwindling
p687
aVbenson
p688
aVmafioso
p689
aVplunges
p690
aVaccomplishes
p691
aVdusty
p692
aVimpacted
p693
aVcusack
p694
aVaccomplished
p695
aVsprouted
p696
aVexpressively
p697
aVenrols
p698
aVinflux
p699
aVkasinsky
p700
aVhouseman
p701
aVbetraying
p702
aVfakery
p703
aVred
p704
aVdarnell
p705
aVundergone
p706
aVworking
p707
aVgoregeous
p708
aVoldham
p709
aVopposed
p710
aVportorican
p711
aVfamilar
p712
aVperishes
p713
aVooooooo
p714
aVisrael
p715
aVassimilation
p716
aVsierra
p717
aVconsoles
p718
aVriders
p719
aVrebounding
p720
aVtitanium
p721
aVoriginally
p722
aVabortion
p723
aVamericanised
p724
aVharmonious
p725
aVgoody
p726
aVfollowing
p727
aVzippers
p728
aVadmired
p729
aVmirrors
p730
aVstetson
p731
aVparachute
p732
aVlocks
p733
aVsextette
p734
aVadmires
p735
aVadmirer
p736
aVlistens
p737
aVseptic
p738
aVvainly
p739
aVthanking
p740
aVedouard
p741
aVmaude
p742
aVrewatched
p743
aVmintues
p744
aVcasualness
p745
aVmythos
p746
aVconvincingly
p747
aVfueled
p748
aVmeddled
p749
aVcommensurately
p750
aVbrainless
p751
aVegotistical
p752
aVsurfing
p753
aVjonnie
p754
aVconscious
p755
aVregressive
p756
aVnebbish
p757
aVskirmish
p758
aVwolves
p759
aVpulled
p760
aVmanga
p761
aVimpactful
p762
aVyears
p763
aVprofessors
p764
aVstructuring
p765
aVepisodes
p766
aVkyzynski
p767
aVprofessory
p768
aVoverlord
p769
aVdisconnect
p770
aVslimeball
p771
aVjia
p772
aVmilked
p773
aVjim
p774
aVtroubles
p775
aVrudnick
p776
aVwahlberg
p777
aVjip
p778
aVsuspension
p779
aVtroubled
p780
aVmodestly
p781
aVrecipients
p782
aVcivilian
p783
aVcourageously
p784
aVindigenous
p785
aVoverpowering
p786
aVdrilling
p787
aVworkmanlike
p788
aVhenpecked
p789
aVsorted
p790
aV\u005c
p791
aVmaterialized
p792
aVdidn
p793
aVdidi
p794
aVdispite
p795
aVfisherman
p796
aVbattleships
p797
aVinstability
p798
aVquarter
p799
aVgreenwald
p800
aVquartet
p801
aVmaterializes
p802
aVretrieve
p803
aVbursting
p804
aVreceipt
p805
aVremembrance
p806
aVsponsor
p807
aVentering
p808
aVsalads
p809
aVdisasters
p810
aVbouyant
p811
aVinterned
p812
aVyojimbo
p813
aVdisaster_
p814
aVseriously
p815
aVtrauma
p816
aVfirorina
p817
aVinternet
p818
aVmerpeople
p819
aVhenreid
p820
aVigniting
p821
aVrealisation
p822
aVcomplicates
p823
aVdisintegrated
p824
aVhairdresser
p825
aVcomplicated
p826
aVgrandma
p827
aVmarla
p828
aVmodest
p829
aVmarlo
p830
aVinitiate
p831
aVaboard
p832
aVsocking
p833
aVneglect
p834
aVemotion
p835
aVgunshot
p836
aVtingles
p837
aVsaving
p838
aVsymmetry
p839
aVspoken
p840
aVvelda
p841
aVsavini
p842
aVwestlake
p843
aVreprisal
p844
aVone
p845
aVony
p846
aVpunishable
p847
aVperiodical
p848
aVhaviland
p849
aVtamara
p850
aVonw
p851
aVplotless
p852
aVexaggerations
p853
aVstifler
p854
aVstifles
p855
aVformulates
p856
aVlimburgher
p857
aVstifled
p858
aVhurricaine
p859
aVoversimplified
p860
aVlingering
p861
aVfeatherbrained
p862
aVbeesley
p863
aVcherbourg
p864
aVshawn
p865
aVsurges
p866
aVsnatch
p867
aVdevito
p868
aVanthesis
p869
aVabsorbs
p870
aVrza
p871
aVhoyle
p872
aVgisbourne
p873
aVfarsical
p874
aVcrossroads
p875
aVadmitedly
p876
aVrehab
p877
aVwandering
p878
aVdisasterous
p879
aVdilemnas
p880
aVbulow
p881
aVillness
p882
aVaaaaaaaahhhh
p883
aVstylings
p884
aVsumptuous
p885
aVturned
p886
aVlocations
p887
aVjewels
p888
aVbalsan
p889
aVuninterrupted
p890
aVturner
p891
aVpoliticos
p892
aVinvite
p893
aVpimply
p894
aVzoe
p895
aVcigarettes
p896
aVwarriors
p897
aVzoo
p898
aVgoodman
p899
aVportents
p900
aVmartineau
p901
aV_titus_andronicus_
p902
aVmayer
p903
aVlick
p904
aVpimple
p905
aVmurphy
p906
aVopposite
p907
aVdiscerning
p908
aVspewing
p909
aVbuffet
p910
aVprinted
p911
aVknowingly
p912
aVbuffed
p913
aVhuns
p914
aVcaptivatingly
p915
aVtouchy
p916
aVphil
p917
aVtoucha
p918
aVjitters
p919
aVmessier
p920
aVjittery
p921
aVlydia
p922
aVfeuds
p923
aVdelroy
p924
aVwynn
p925
aVfakeouts
p926
aVimagines
p927
aVfriction
p928
aVfecal
p929
aVoderkerk
p930
aVinconsistent
p931
aVsoviets
p932
aVimagined
p933
aVwynt
p934
aVseminal
p935
aVzahn
p936
aVreconciling
p937
aVcoaxing
p938
aVremastered
p939
aVguarded
p940
aVrejoiced
p941
aVsuitcases
p942
aVrevolutionized
p943
aVtilting
p944
aVsimplistic
p945
aVawaiting
p946
aVmatsumoto
p947
aVpimp
p948
aVtrys
p949
aVcarrion
p950
aVspam
p951
aVrecoiling
p952
aVchoudhury
p953
aVvision
p954
aVmorose
p955
aVattenuated
p956
aVunderbids
p957
aVaudaciously
p958
aVimpressions
p959
aVintoxicating
p960
aVaboslutely
p961
aVdefensively
p962
aVretells
p963
aVmasturbatory
p964
aValarming
p965
aVsponsorship
p966
aVmoons
p967
aVenjoys
p968
aVplayhouse
p969
aVcaan
p970
aVtsui
p971
aVlyricized
p972
aVtamahori
p973
aVbraggarts
p974
aVpunts
p975
aVawards
p976
aVmenacing
p977
aVuncharacteristically
p978
aVconcentrated
p979
aVbusting
p980
aVmajestically
p981
aVrhodes
p982
aVmatheson
p983
aVmillionaire
p984
aVflipped
p985
aVpoliced
p986
aVs
p987
aVworkplace
p988
aVconcentrates
p989
aVflipper
p990
aVdoctoring
p991
aVloveliest
p992
aVbeowolf
p993
aVanette
p994
aVcomparitive
p995
aVcollides
p996
aVwest
p997
aVdeuteronomy
p998
aVcollided
p999
aVmotives
p1000
aVpseudonymous
p1001
aVspyglass
p1002
aVwants
p1003
aVvomits
p1004
aVtomei
p1005
aVformed
p1006
aVphoton
p1007
aVreadings
p1008
aVphotos
p1009
aVtightened
p1010
aVabject
p1011
aVformer
p1012
aVsommers
p1013
aVdefeatist
p1014
aVstraighten
p1015
aVsqueezes
p1016
aVbutchers
p1017
aVrevelatory
p1018
aVapropos
p1019
aVnewspaper
p1020
aVsituation
p1021
aVivey
p1022
aVpenthouse
p1023
aVunlikeable
p1024
aVengaged
p1025
aVvamires
p1026
aVdubious
p1027
aVmenancing
p1028
aVengages
p1029
aVdemolition
p1030
aVdebilitating
p1031
aVingrained
p1032
aVnuptials
p1033
aVfistfights
p1034
aVquiclky
p1035
aVotto
p1036
aVjessalyn
p1037
aVbogglingly
p1038
aVvisually
p1039
aVwires
p1040
aVedged
p1041
aVassigns
p1042
aVhideaway
p1043
aVsickness
p1044
aVkrippendorf
p1045
aVdefy
p1046
aVbrassed
p1047
aVdeflate
p1048
aVtolan
p1049
aVedges
p1050
aVamuck
p1051
aVadvertisement
p1052
aVratttz
p1053
aVtracking
p1054
aVdroppingly
p1055
aVnothin
p1056
aVpeculiarities
p1057
aVdimension
p1058
aVpersistently
p1059
aVrecycles
p1060
aVbeing
p1061
aVbueller
p1062
aVrecycled
p1063
aVdick_
p1064
aVparlay
p1065
aVprocreating
p1066
aVrover
p1067
aVgrounded
p1068
aVexcuses
p1069
aVcloris
p1070
aVadroit
p1071
aVoverthrow
p1072
aVhaystack
p1073
aVdicks
p1074
aVellen
p1075
aVabsense
p1076
aVholdover
p1077
aVsportsmanship
p1078
aVrejoin
p1079
aVsums
p1080
aVunveil
p1081
aVsumo
p1082
aVtraffic
p1083
aVpreference
p1084
aVworld
p1085
aVembrassment
p1086
aVpostal
p1087
aVlikeablity
p1088
aVsensational
p1089
aVmalfunctions
p1090
aVunrepentant
p1091
aVleeanne
p1092
aVsuperiority
p1093
aVglamor
p1094
aVpetrice
p1095
aVconfrontatory
p1096
aVsatisfactory
p1097
aVsuperintendent
p1098
aVdilbert
p1099
aVtvs
p1100
aVmagma
p1101
aVdemeaning
p1102
aVdiving
p1103
aVstagecoach
p1104
aVdivine
p1105
aVbongos
p1106
aVcavity
p1107
aVseaman
p1108
aVfrancois
p1109
aV911
p1110
aVrestoring
p1111
aVsquabble
p1112
aVaverse
p1113
aVmacgowan
p1114
aVretains
p1115
aVtv2
p1116
aVleadership
p1117
aVpiscapo
p1118
aVthailand
p1119
aVpetey
p1120
aVprepared
p1121
aVdemarco
p1122
aVexasperating
p1123
aVloyalties
p1124
aVkroon
p1125
aVhopkins
p1126
aVmajorino
p1127
aVstanleyville
p1128
aVfrights
p1129
aVniall
p1130
aVjohnston
p1131
aVlocklear
p1132
aVsensitively
p1133
aVrabbinical
p1134
aVperturbed
p1135
aVshapely
p1136
aVburial
p1137
aVantidote
p1138
aVineffable
p1139
aVlively
p1140
aVbukater
p1141
aVpivot
p1142
aVconceptually
p1143
aVrossi
p1144
aVuhhhhhm
p1145
aVcomplexly
p1146
aVdistractedness
p1147
aVgleam
p1148
aVglean
p1149
aVlounging
p1150
aVredirection
p1151
aVmindless
p1152
aVmissy
p1153
aVsealed
p1154
aVbrazilian
p1155
aVbubble
p1156
aVcecilia
p1157
aVwitt
p1158
aVcontinents
p1159
aVwits
p1160
aVbohemians
p1161
aVguitry
p1162
aVsocietal
p1163
aVforeheads
p1164
aVsked
p1165
aVwith
p1166
aVnntphub
p1167
aVabused
p1168
aVpull
p1169
aVrush
p1170
aVthumps
p1171
aVrage
p1172
aVtripe
p1173
aVclaustral
p1174
aVchomped
p1175
aVrags
p1176
aVdirty
p1177
aVabuser
p1178
aVabuses
p1179
aVruss
p1180
aVtrips
p1181
aVtouchstone
p1182
aVpatois
p1183
aVgratuitous
p1184
aVwatches
p1185
aVwatcher
p1186
aVtragicomic
p1187
aVassociating
p1188
aVtoontown
p1189
aVwatched
p1190
aVjargon
p1191
aVtremble
p1192
aVdampens
p1193
aVcream
p1194
aVmoniker
p1195
aVideally
p1196
aVyogi
p1197
aVsympathetically
p1198
aVunwelcomed
p1199
aVintrospection
p1200
aVhofstra
p1201
aVunparalleled
p1202
aVfriggin
p1203
aVpuppy
p1204
aVwaving
p1205
aVmidget
p1206
aVbrotherhood
p1207
aVlinebackers
p1208
aVfedoras
p1209
aVtricky
p1210
aVnatalie
p1211
aVthora
p1212
aVtricks
p1213
aVmaliciously
p1214
aVdyed
p1215
aVfinklestein
p1216
aVdyer
p1217
aVsci
p1218
aVcaused
p1219
aVbeware
p1220
aVzappa
p1221
aVgenieveve
p1222
aVcauses
p1223
aVriots
p1224
aVnora
p1225
aVconciousness
p1226
aVsedition
p1227
aVcarters
p1228
aVnorm
p1229
aVpowaqqatsi
p1230
aVfloated
p1231
aV24th
p1232
aVsuspensefully
p1233
aVsant
p1234
aVrootless
p1235
aVsans
p1236
aVboozed
p1237
aVshenanigans
p1238
aVroadster
p1239
aVsang
p1240
aVsand
p1241
aVsane
p1242
aVnighthawks
p1243
aVunwraps
p1244
aVsmall
p1245
aVsank
p1246
aVcourtesans
p1247
aVabbreviated
p1248
aVquicker
p1249
aVhealed
p1250
aVpast
p1251
aVdisplays
p1252
aVwakes
p1253
aVpass
p1254
aVhealer
p1255
aVinvestment
p1256
aVamarcord
p1257
aVshockwave
p1258
aVclock
p1259
aVskywalker
p1260
aVleit
p1261
aVcolonists
p1262
aVleia
p1263
aVdwells
p1264
aVhasn
p1265
aVfull
p1266
aVhash
p1267
aVdiapers
p1268
aVportrays
p1269
aVcivilians
p1270
aVnovember
p1271
aVhass
p1272
aVmelancholic
p1273
aVcontrastingly
p1274
aVprevue
p1275
aVexperience
p1276
aVanthropologists
p1277
aVprior
p1278
aVbeaman
p1279
aVperiodic
p1280
aVcessation
p1281
aVskepticism
p1282
aVnorville
p1283
aVfollowed
p1284
aVretroactive
p1285
aVscharzenegger
p1286
aVtraumatized
p1287
aVfollower
p1288
aVcrowned
p1289
aVtraumatizes
p1290
aVcynics
p1291
aVwaterlogged
p1292
aVautomats
p1293
aVsilva
p1294
aVattendance
p1295
aVenliven
p1296
aVbriesewitz
p1297
aVmori
p1298
aVunrecognizable
p1299
aVfirth
p1300
aVmora
p1301
aVglowers
p1302
aVmore
p1303
aVbarbarino
p1304
aVdoor
p1305
aVdoos
p1306
aVinitiated
p1307
aVchucky
p1308
aVcompany
p1309
aVcorrected
p1310
aVtested
p1311
aVlameness
p1312
aVdoom
p1313
aVnegativity
p1314
aVbirdie
p1315
aVleary
p1316
aVkaminski
p1317
aVr2
p1318
aVfornicators
p1319
aVpatriarch
p1320
aVkaminsky
p1321
aVlearn
p1322
aVknocked
p1323
aVgrope
p1324
aVscramble
p1325
aVbarclay
p1326
aVallegra
p1327
aVbogs
p1328
aVmemoirs
p1329
aVmeaner
p1330
aVtwotg
p1331
aVbogg
p1332
aVundeterred
p1333
aVprostration
p1334
aVsikh
p1335
aVhuge
p1336
aVrespective
p1337
aVhickey
p1338
aVedgecomb
p1339
aVmultitudes
p1340
aVspeedboat
p1341
aVhugo
p1342
aVhugh
p1343
aVdismissed
p1344
aVhugs
p1345
aVdismisses
p1346
aVsprinkle
p1347
aVlanky
p1348
aVintended
p1349
aVmendes
p1350
aVthickened
p1351
aVdisgraced
p1352
aVsympathize
p1353
aVhackwork
p1354
aVhockley
p1355
aVmaltese
p1356
aVhuddled
p1357
aVmalevolent
p1358
aVjiang
p1359
aVresemble
p1360
aVsublte
p1361
aVtwisting
p1362
aVtiegs
p1363
aVdolph
p1364
aVovercooked
p1365
aVreplied
p1366
aVweirdoes
p1367
aVpeppy
p1368
aVinstalled
p1369
aVresorts
p1370
aVpaper
p1371
aVscott
p1372
aVsigns
p1373
aVsmiling
p1374
aVsigny
p1375
aVroots
p1376
aVsaucy
p1377
aVmistreated
p1378
aVtantalizingly
p1379
aVethnocentric
p1380
aVsublimated
p1381
aVelmo
p1382
aVhounds
p1383
aVisaak
p1384
aVblunderheaded
p1385
aVbummer
p1386
aVisaac
p1387
aVsauce
p1388
aVreintroduced
p1389
aVcolleague
p1390
aVcartman
p1391
aVfrizzi
p1392
aVabandons
p1393
aVuniversality
p1394
aVgadget
p1395
aVfrizzy
p1396
aVbalaban
p1397
aVweeds
p1398
aVidols
p1399
aVprocreate
p1400
aVeverytime
p1401
aVdenny
p1402
aVcourses
p1403
aVhatchette
p1404
aVrepayment
p1405
aVshocking
p1406
aVreactions
p1407
aVbrunette
p1408
aVnumeric
p1409
aVscalvaging
p1410
aVchrissy
p1411
aVoperation
p1412
aVcenturies
p1413
aVinquired
p1414
aVlipstick
p1415
aVernie
p1416
aVkensington
p1417
aVbuzzsaw
p1418
aVresearch
p1419
aVinquires
p1420
aVoccurs
p1421
aVinsubordinate
p1422
aVabnormally
p1423
aVpoignantly
p1424
aVwachowskis
p1425
aVdefinition
p1426
aVpairs
p1427
aVtheroux
p1428
aVvilliany
p1429
aVunjustifyably
p1430
aVtestament
p1431
aVexistential
p1432
aVporpoise
p1433
aVhorndog
p1434
aVtrekkie
p1435
aVterrifyingly
p1436
aVbrutally
p1437
aVpreservation
p1438
aVarlington
p1439
aVnomi
p1440
aVmoderately
p1441
aVheartedness
p1442
aVbigscreen
p1443
aVexcitable
p1444
aVbedridden
p1445
aVsaint
p1446
aVkindergartner
p1447
aVessays
p1448
aVpeaceably
p1449
aVjustly
p1450
aVinterviewed
p1451
aVtyphoon
p1452
aVcheekbones
p1453
aVchapelle
p1454
aVtheater
p1455
aVstifle
p1456
aVoilrig
p1457
aVpyroclastic
p1458
aVfunicello
p1459
aVstormare
p1460
aVcondolences
p1461
aVbruckheimer
p1462
aVgetaway
p1463
aVcharges
p1464
aVdismantling
p1465
aVlaughton
p1466
aVprescott
p1467
aVnavigators
p1468
aVkret
p1469
aVmensch
p1470
aVorganisations
p1471
aVswanky
p1472
aVwaft
p1473
aVguarding
p1474
aVgraffiti
p1475
aVblond
p1476
aVcleon
p1477
aVcleverness
p1478
aVsell
p1479
aVnosebleeding
p1480
aVantagonizes
p1481
aVtarnish
p1482
aVself
p1483
aVsela
p1484
aVelisa
p1485
aValso
p1486
aVrecognizing
p1487
aVsebastiano
p1488
aVconscription
p1489
aVsharpe
p1490
aVbastad
p1491
aVlunges
p1492
aVpringles
p1493
aVsingles
p1494
aVmistic
p1495
aVraucous
p1496
aVvirus
p1497
aVnarrations
p1498
aVsingled
p1499
aVunderstands
p1500
aVomaha
p1501
aVseize
p1502
aVsometimes
p1503
aVflits
p1504
aVbarred
p1505
aVcultivating
p1506
aVbarren
p1507
aVbarrel
p1508
aVshread
p1509
aVamusements
p1510
aVharvests
p1511
aVdragonflies
p1512
aVambiguities
p1513
aVugh
p1514
aVcrowbar
p1515
aVugc
p1516
aVblended
p1517
aVaccommodations
p1518
aVcolorized
p1519
aVnaomi
p1520
aVoverwhelmed
p1521
aVcaruso
p1522
aVwraps
p1523
aVkinkiness
p1524
aVneophytes
p1525
aVgooey
p1526
aVroyalist
p1527
aVcassette
p1528
aVsnobbish
p1529
aVcrashlands
p1530
aVindifference
p1531
aVlombard
p1532
aVhaskin
p1533
aVsecular
p1534
aVceasing
p1535
aVsunny
p1536
aVinformants
p1537
aVyeager
p1538
aVremedy
p1539
aVcompass
p1540
aVdamnit
p1541
aVdistraction
p1542
aVdevoured
p1543
aVsects
p1544
aVpleasures
p1545
aVtanked
p1546
aVsojourn
p1547
aVambling
p1548
aVtanker
p1549
aVpleasured
p1550
aVrumored
p1551
aVinsane
p1552
aVdelicately
p1553
aVbozo
p1554
aVactivists
p1555
aVcollectively
p1556
aVoverboard
p1557
aVallie
p1558
aVproject
p1559
aVrichelieu
p1560
aVahmet
p1561
aVstoryboarded
p1562
aVvaporize
p1563
aV15th
p1564
aVgoggins
p1565
aVuntouched
p1566
aVcompton
p1567
aVcanran
p1568
aVlass
p1569
aVlast
p1570
aVlegitimately
p1571
aVopal
p1572
aVswigert
p1573
aVconnection
p1574
aVamoeba
p1575
aVopar
p1576
aVretarded
p1577
aVlash
p1578
aVonofrio
p1579
aVbell
p1580
aV2293
p1581
aVacted
p1582
aVtardis
p1583
aVadaptation
p1584
aVseldes
p1585
aVbelt
p1586
aVunthrilling
p1587
aVwarfield
p1588
aVunarguably
p1589
aVsatire
p1590
aVimplicit
p1591
aVsuburbs
p1592
aVproprietor
p1593
aVinitiation
p1594
aVportait
p1595
aVfaulkner
p1596
aVpatrolled
p1597
aVgloating
p1598
aVcombatants
p1599
aVinfect
p1600
aVamphibians
p1601
aVadaptable
p1602
aVdiverted
p1603
aVawake
p1604
aVdespite
p1605
aVmournful
p1606
aVmagwitch
p1607
aVexponential
p1608
aVcaged
p1609
aVexpanded
p1610
aVnegg
p1611
aVbudget
p1612
aVadmire
p1613
aV33
p1614
aVcagey
p1615
aVpressed
p1616
aVfrighteners
p1617
aVbogan
p1618
aVtreason
p1619
aVcages
p1620
aVnervousness
p1621
aVvoe
p1622
aVagitation
p1623
aVvon
p1624
aVbinding
p1625
aVvow
p1626
aVcuisine
p1627
aVraiders
p1628
aVphelps
p1629
aVpridefully
p1630
aVmatchmakers
p1631
aVcayman
p1632
aVugliness
p1633
aVcalculation
p1634
aVimprovisationaly
p1635
aVflooded
p1636
aVbrides
p1637
aVeverclear
p1638
aVfleischer
p1639
aVwunderkind
p1640
aVvargas
p1641
aVclimb
p1642
aVinfamous
p1643
aVsymbolise
p1644
aVcronenberg
p1645
aVscoffs
p1646
aVlooted
p1647
aVbumming
p1648
aVsoaked
p1649
aVlads
p1650
aVgripe
p1651
aVsalva
p1652
aVcheddar
p1653
aVcrackled
p1654
aVthaddeus
p1655
aVhercules
p1656
aVcrackles
p1657
aVblizzard
p1658
aVcuffs
p1659
aVreap
p1660
aVrangers
p1661
aVresemblances
p1662
aVparents
p1663
aVdepravity
p1664
aVcomprehensible
p1665
aVeery
p1666
aVpromiss
p1667
aVcormack
p1668
aVnuez
p1669
aVemergency
p1670
aVimpaling
p1671
aVcouple
p1672
aVbureaucrat
p1673
aVemanating
p1674
aVwives
p1675
aVofcs
p1676
aVpolemic
p1677
aVabound
p1678
aVemergence
p1679
aVthurman
p1680
aVmarquee
p1681
aVspine
p1682
aVchorus
p1683
aVindividuals
p1684
aVbogie
p1685
aVtribes
p1686
aVexplainable
p1687
aVturvy
p1688
aValexandre
p1689
aVspins
p1690
aVcrescendo
p1691
aVmethods
p1692
aVgoddamn
p1693
aVunsubstantial
p1694
aVbounce
p1695
aVahern
p1696
aVbouncy
p1697
aVgreener
p1698
aVunderbelly
p1699
aVtelefixated
p1700
aVscrubs
p1701
aVmeasurements
p1702
aVnovelty
p1703
aVbenefit
p1704
aVbehave
p1705
aVwhodunit
p1706
aVaissa
p1707
aVunformal
p1708
aVseclusion
p1709
aVinserting
p1710
aVjovovich
p1711
aVobscures
p1712
aVrespite
p1713
aVgrotesqe
p1714
aVjanusz
p1715
aVobscured
p1716
aVdirtier
p1717
aVcranked
p1718
aVdeserved
p1719
aVsimplify
p1720
aVscorces
p1721
aVwrinkles
p1722
aVmelbourne
p1723
aVdeserves
p1724
aVscraggly
p1725
aVwrinkled
p1726
aVgallagher
p1727
aVcanning
p1728
aVtornatore
p1729
aVterrorists
p1730
aVcoaxed
p1731
aVinto
p1732
aVunredeemable
p1733
aVprodigious
p1734
aVcatchiness
p1735
aVmiddleton
p1736
aVcontroversies
p1737
aVchirping
p1738
aVkatie
p1739
aVinteractivity
p1740
aVspan
p1741
aVharnessed
p1742
aVtasting
p1743
aVsock
p1744
aVgases
p1745
aVbios
p1746
aVmishandle
p1747
aVspar
p1748
aVpurred
p1749
aVrestraints
p1750
aVspat
p1751
aVchu
p1752
aVconsiderably
p1753
aVatlantis
p1754
aVjacks
p1755
aVhawaiian
p1756
aVpalentologist
p1757
aVsolaris
p1758
aV_dragon_
p1759
aVdeductions
p1760
aVatlantic
p1761
aVcarping
p1762
aVfanatasies
p1763
aVconsiderable
p1764
aVintestines
p1765
aVjacki
p1766
aVfades
p1767
aVcharmed
p1768
aVerich
p1769
aVpissant
p1770
aVtestaments
p1771
aVeddie
p1772
aVerica
p1773
aVpaired
p1774
aVphallus
p1775
aVfaded
p1776
aVkihlstedt
p1777
aVawestruck
p1778
aVchad
p1779
aVinfluence
p1780
aVhaunt
p1781
aVportentuous
p1782
aVglobally
p1783
aVthomsen
p1784
aVchap
p1785
aVdiverse
p1786
aVpalisades
p1787
aVchat
p1788
aVsurveying
p1789
aVchaz
p1790
aVfrontgate
p1791
aVneilsen
p1792
aVspearing
p1793
aVintrepid
p1794
aVpainkiller
p1795
aVpuzzling
p1796
aVcopulate
p1797
aVconceptions
p1798
aVsinged
p1799
aVheebie
p1800
aVrabal
p1801
aVduper
p1802
aVoblige
p1803
aVgardenia
p1804
aVteck
p1805
aVstrums
p1806
aVaussies
p1807
aVbianca
p1808
aVmckidd
p1809
aVdancefloor
p1810
aVflyboy
p1811
aVsuppression
p1812
aVrhythmless
p1813
aVeuphegenia
p1814
aVlang
p1815
aVlane
p1816
aVland
p1817
aVryan_
p1818
aVlana
p1819
aVadvertisment
p1820
aVpurged
p1821
aVprizes
p1822
aVmodernizing
p1823
aVzzzzzzz
p1824
aVsplashing
p1825
aVunbuttoning
p1826
aVbroader
p1827
aVamiss
p1828
aVflashback
p1829
aVhumpback
p1830
aVdetectives
p1831
aVamalgamation
p1832
aVturkish
p1833
aVhorsing
p1834
aVdickinson
p1835
aVcarelessly
p1836
aVresources
p1837
aVuploaded
p1838
aVlindner
p1839
aVboatload
p1840
aVaatish
p1841
aVmillieu
p1842
aValienbusting
p1843
aVdryland
p1844
aVprakazrel
p1845
aVtraumatised
p1846
aVkoppelman
p1847
aVpetitions
p1848
aVdecorating
p1849
aVrosselini
p1850
aVsquirt
p1851
aVherzfeld
p1852
aVdetested
p1853
aVyakov
p1854
aVlombardo
p1855
aVrifling
p1856
aVf
p1857
aVfewer
p1858
aVdamning
p1859
aVyevgeny
p1860
aVdisheveled
p1861
aVleonardi
p1862
aVleonardo
p1863
aVmaclachlan
p1864
aVdysfuntion
p1865
aVcannibals
p1866
aVmishap
p1867
aVcrook
p1868
aVvideo
p1869
aVdynamics
p1870
aVayla
p1871
aVrediscovers
p1872
aVvictor
p1873
aVsweats
p1874
aVwaning
p1875
aVsweaty
p1876
aVhenceforth
p1877
aVturnaround
p1878
aVslickster
p1879
aVflowing
p1880
aVcharade
p1881
aVharassing
p1882
aVguamo
p1883
aVforwarned
p1884
aVapace
p1885
aVdolly
p1886
aV_seven_nights_
p1887
aVsquirming
p1888
aVpalladino
p1889
aVfifteen
p1890
aVkriss
p1891
aVbakersfield
p1892
aVunwittingly
p1893
aVrehabilitation
p1894
aVquaint
p1895
aVsurvey
p1896
aVmakes
p1897
aVmaker
p1898
aVthats
p1899
aVpanicked
p1900
aVdumbest
p1901
aVdesiring
p1902
aVconfidence
p1903
aVexcising
p1904
aVgregor
p1905
aVzsigmond
p1906
aVnext
p1907
aVeleven
p1908
aVassuring
p1909
aVmccleod
p1910
aVtahoe
p1911
aVbinges
p1912
aVyugoslavian
p1913
aVpencil
p1914
aVbabe
p1915
aVinterogation
p1916
aVbabs
p1917
aVlosin
p1918
aVbaby
p1919
aVantichrist
p1920
aV_escape
p1921
aVdocumentarian
p1922
aVcustomer
p1923
aVhessian
p1924
aVintegrating
p1925
aVclients
p1926
aVmcferran
p1927
aVunknowns
p1928
aVretell
p1929
aVharve
p1930
aVinitation
p1931
aVscatter
p1932
aVwedge
p1933
aVloca
p1934
aVpainstakingly
p1935
aVprocess
p1936
aVlock
p1937
aVcoolness
p1938
aVloco
p1939
aVpromotional
p1940
aVaughra
p1941
aVnears
p1942
aVbolstered
p1943
aVneary
p1944
aVengagingly
p1945
aVeducational
p1946
aVprocures
p1947
aVraeeyain
p1948
aVpaled
p1949
aVschandling
p1950
aVtightrope
p1951
aVprocured
p1952
aVbilingual
p1953
aVhormones
p1954
aVburley
p1955
aVcomedy
p1956
aVintelligent
p1957
aVpales
p1958
aVincongruent
p1959
aVlocusts
p1960
aVchow
p1961
aVinternalize
p1962
aVpsychiatric
p1963
aVretrograding
p1964
aVupstate
p1965
aVrealized
p1966
aVclarkson
p1967
aVawkwardness
p1968
aVrobot
p1969
aVrealizes
p1970
aVsciorra
p1971
aVtypicalness
p1972
aVhouston
p1973
aVboxing
p1974
aVthigh
p1975
aVmute
p1976
aVmuth
p1977
aVinsight
p1978
aVfrieberg
p1979
aVspatula
p1980
aVdirects
p1981
aVhotcakes
p1982
aVperfect
p1983
aVbyline
p1984
aVjetsons
p1985
aVmeantime
p1986
aVthieves
p1987
aVderivative
p1988
aV90210
p1989
aVsabotaging
p1990
aVprosper
p1991
aVvocalized
p1992
aVvicariously
p1993
aVoveral
p1994
aVisacsson
p1995
aVsnake
p1996
aVrealize
p1997
aVreconstruction
p1998
aVdamian
p1999
aVspilling
p2000
aVscenic
p2001
aVzeist
p2002
aVdenzel
p2003
aVshortage
p2004
aVweismuller
p2005
aVglasses
p2006
aVgoldsman
p2007
aVsuitors
p2008
aVbump
p2009
aVboyum
p2010
aVbums
p2011
aVdeficiency
p2012
aVleplastrier
p2013
aVbooks
p2014
aVresuscitate
p2015
aVbigfoot
p2016
aVwitness
p2017
aVmatrix
p2018
aV'
p2019
aVnarratively
p2020
aVfrowns
p2021
aVsever
p2022
aVunprepared
p2023
aVhighs
p2024
aVburke
p2025
aVunwieldy
p2026
aVinferiority
p2027
aVgreedy
p2028
aVgawain
p2029
aVdisintegrating
p2030
aVinitialize
p2031
aVpothead
p2032
aVglistening
p2033
aVmainland
p2034
aVhunks
p2035
aVblandy
p2036
aVgallons
p2037
aVcould
p2038
aVchilly
p2039
aVlength
p2040
aVchills
p2041
aVerrol
p2042
aVbabyzilla
p2043
aVscene
p2044
aVsoothing
p2045
aVaffliction
p2046
aVleick
p2047
aVscent
p2048
aVerstwhile
p2049
aVfestival
p2050
aVlumet
p2051
aVfanaro
p2052
aVstabbin
p2053
aVsergeant
p2054
aVhenning
p2055
aVpervasive
p2056
aVenforcement
p2057
aVstomach
p2058
aVquarry
p2059
aVpulman
p2060
aVsolon
p2061
aVbeastuality
p2062
aVincongruities
p2063
aVfatboy
p2064
aVegregious
p2065
aVroulette
p2066
aVcommandant
p2067
aVgentile
p2068
aVorchestrated
p2069
aVdaydreams
p2070
aVgays
p2071
aVcollette
p2072
aVfaulted
p2073
aVfalse
p2074
aVshrinks
p2075
aVchivalrous
p2076
aVtonight
p2077
aVponders
p2078
aVrichman
p2079
aVsufis
p2080
aVcecil
p2081
aVdepict
p2082
aVdishes
p2083
aVdished
p2084
aVbakshi
p2085
aVworldwide
p2086
aVjimmies
p2087
aVmanor
p2088
aVfujioka
p2089
aVpetals
p2090
aVcipher
p2091
aVunsexy
p2092
aVunsparing
p2093
aVauberjonois
p2094
aVplacement
p2095
aVpressured
p2096
aVwuthering
p2097
aVmarshalls
p2098
aVbred
p2099
aVthanksgiving
p2100
aVlots
p2101
aVperceiving
p2102
aVbartenders
p2103
aVundersea
p2104
aVbrew
p2105
aVbret
p2106
aVrainbows
p2107
aVscotty
p2108
aVgreenhouse
p2109
aVattainable
p2110
aVnominally
p2111
aVxvi
p2112
aVtaps
p2113
aVjax
p2114
aVjay
p2115
aVjaw
p2116
aVconsciouness
p2117
aVjar
p2118
aVrisqueness
p2119
aVgascogne
p2120
aVjan
p2121
aVentities
p2122
aVjam
p2123
aVtape
p2124
aVjah
p2125
aVjai
p2126
aVriding
p2127
aVjab
p2128
aVabbe
p2129
aVverging
p2130
aVabba
p2131
aVantagonism
p2132
aVprohibition
p2133
aVmolasses
p2134
aVwring
p2135
aVstyrofoam
p2136
aVabby
p2137
aVdominican
p2138
aVgertz
p2139
aVrapper
p2140
aVcomprising
p2141
aVtaxes
p2142
aVvying
p2143
aVocmic
p2144
aVstuff
p2145
aVohio
p2146
aVrapped
p2147
aVraceway
p2148
aVexude
p2149
aVvito
p2150
aVguessing
p2151
aVallusion
p2152
aVqinqin
p2153
aVframe
p2154
aVkombat_
p2155
aValessandro
p2156
aVgraph
p2157
aVtrods
p2158
aVdeconstructs
p2159
aVdungeon
p2160
aVdestiny
p2161
aVinsulting
p2162
aVnuclear
p2163
aVcomprehendably
p2164
aVmelrose
p2165
aVcomprehendable
p2166
aVrepetitively
p2167
aVnesmith
p2168
aVpreminger
p2169
aVkeynote
p2170
aVditzism
p2171
aVifans
p2172
aVrefuting
p2173
aVlawsuit
p2174
aVstaring
p2175
aVmarty
p2176
aVhammy
p2177
aVmarts
p2178
aVrizzo
p2179
aVflanery
p2180
aVdoorway
p2181
aVunearthing
p2182
aVvadar
p2183
aVconclude
p2184
aVroughed
p2185
aVstylistically
p2186
aVfalseness
p2187
aVmailman
p2188
aVwormwood
p2189
aVmidland
p2190
aVcatholicism
p2191
aVkahl
p2192
aVkahn
p2193
aVeviscerated
p2194
aVyoram
p2195
aVfeather
p2196
aV>
p2197
aVmarcellus
p2198
aValtruist
p2199
aVsheepish
p2200
aVcommuter
p2201
aVcommutes
p2202
aVswarmed
p2203
aVcoherence
p2204
aVhateful
p2205
aVswindling
p2206
aVbanish
p2207
aVmiscommunicated
p2208
aVlecherous
p2209
aVinadvertently
p2210
aVdisdain
p2211
aVreminiscence
p2212
aVgamesmanship
p2213
aVeaton
p2214
aVhahaha
p2215
aVwhippersnappers
p2216
aVfielding
p2217
aVmiyake
p2218
aVstuffing
p2219
aVlawerence
p2220
aVlascivious
p2221
aVimpervious
p2222
aVransom
p2223
aVtattoo
p2224
aVostentatious
p2225
aVmoves
p2226
aVpauly
p2227
aVsubtitling
p2228
aVpaull
p2229
aVpainstaking
p2230
aVgibbs
p2231
aVpickin
p2232
aVchronicling
p2233
aVpaula
p2234
aVunimaginable
p2235
aVcomplemented
p2236
aVunsympathetic
p2237
aVcensoring
p2238
aVfraidy
p2239
aVberardinelli
p2240
aVidentity
p2241
aVofa
p2242
aVoff
p2243
aVshotgun
p2244
aVguaspari
p2245
aVdissing
p2246
aVpatterns
p2247
aVfashionable
p2248
aVoft
p2249
aVadministered
p2250
aVaudio
p2251
aVtactfully
p2252
aVbraniff
p2253
aVnewest
p2254
aVobscenity
p2255
aVdissatisfying
p2256
aVsouped
p2257
aVcoalwood
p2258
aVclocks
p2259
aVdiedre
p2260
aVunmitigatedly
p2261
aVweb
p2262
aVwee
p2263
aVhauntingly
p2264
aVsquabbling
p2265
aVwei
p2266
aVwen
p2267
aVtoyed
p2268
aVundulating
p2269
aVwes
p2270
aVwet
p2271
aVcontradictory
p2272
aVpractise
p2273
aVvillagers
p2274
aVtics
p2275
aVpieh
p2276
aVpied
p2277
aVcrud
p2278
aVstooped
p2279
aVfalters
p2280
aVcrux
p2281
aVcruz
p2282
aVzimbabwe
p2283
aVhallucinates
p2284
aVatrophy
p2285
aVpiet
p2286
aVtick
p2287
aVpier
p2288
aVpies
p2289
aVdebatable
p2290
aVemma
p2291
aVbulge
p2292
aVmistrustful
p2293
aVflickering
p2294
aVbecome
p2295
aVemmy
p2296
aVassasination
p2297
aVnutsy
p2298
aVknifepoint
p2299
aVbrainerd
p2300
aVunderwent
p2301
aVbasque
p2302
aV_pick_chucky_up_
p2303
aVimmortal
p2304
aVbrainers
p2305
aVgymnastics
p2306
aVchoosing
p2307
aVflush
p2308
aVhissing
p2309
aVhumming
p2310
aVrecognition
p2311
aVdelaurentiis
p2312
aVhipsters
p2313
aVmementos
p2314
aVbuehler
p2315
aVpassion
p2316
aVcopulation
p2317
aVbiology
p2318
aVuhhhm
p2319
aVbrokering
p2320
aVpressure
p2321
aVinfiltrating
p2322
aVimaginary
p2323
aVartillary
p2324
aVcoldly
p2325
aVhomemaker
p2326
aViwai
p2327
aVlifestyle
p2328
aVlanger
p2329
aVburroughs
p2330
aVoutshines
p2331
aVblackness
p2332
aVsadoski
p2333
aVdocumentary
p2334
aVswimming
p2335
aVletters
p2336
aVmiscegenation
p2337
aVrochon
p2338
aVtorches
p2339
aVcompadre
p2340
aVmojorino
p2341
aVprivates
p2342
aVterminated
p2343
aVletter_
p2344
aVpairing
p2345
aVpeters
p2346
aVtylenol
p2347
aVheresy
p2348
aVindoctrinated
p2349
aVpoppins
p2350
aVrhythmic
p2351
aVmourned
p2352
aVyarns
p2353
aVmoonstruck
p2354
aVprogenitor
p2355
aVkanoby
p2356
aVjerkish
p2357
aVbagger
p2358
aVzaniness
p2359
aVtossed
p2360
aVplaces
p2361
aVbloodline
p2362
aVlobotomise
p2363
aVcongresswoman
p2364
aVexcitement
p2365
aVplaced
p2366
aVmouseketeer
p2367
aVtosses
p2368
aVproblem
p2369
aVnurses
p2370
aV_lot_
p2371
aVgungan
p2372
aVwalters
p2373
aVeffected
p2374
aVcompared
p2375
aVnonetheless
p2376
aVdeadly
p2377
aVpurproses
p2378
aVlately
p2379
aVcompares
p2380
aVdetails
p2381
aVbehold
p2382
aVvulgarize
p2383
aVillusion
p2384
aVponytail
p2385
aVrebelled
p2386
aVrepeat
p2387
aVzhou
p2388
aVswann
p2389
aVunoriginal
p2390
aVallotting
p2391
aVimpregnating
p2392
aVtinier
p2393
aVnicest
p2394
aVtrunchbull
p2395
aVlaude
p2396
aVexposure
p2397
aVsearches
p2398
aVdisatisfaction
p2399
aVmishears
p2400
aVtorrid
p2401
aVcompete
p2402
aVlestat
p2403
aVvillainous
p2404
aVsearched
p2405
aVhumoring
p2406
aVgardens
p2407
aVhomerian
p2408
aVharrowingly
p2409
aVclamoring
p2410
aVmadsen
p2411
aVyikes
p2412
aVnursery
p2413
aVtenuous
p2414
aVhuffs
p2415
aVfedoore
p2416
aVrekindle
p2417
aVstinks
p2418
aVporno
p2419
aVlopped
p2420
aVstinky
p2421
aVneighbours
p2422
aVrapier
p2423
aVworth
p2424
aVporns
p2425
aValternating
p2426
aVamorous
p2427
aVcopasetic
p2428
aVdougnac
p2429
aVaurora
p2430
aVaurore
p2431
aVkissed_
p2432
aVhelgenberger
p2433
aVrosalba
p2434
aVsummarized
p2435
aVsuccumbing
p2436
aVslimming
p2437
aVprogression
p2438
aVinvestigator
p2439
aVroadblock
p2440
aVsamurai
p2441
aVnotifying
p2442
aVupholds
p2443
aVmonologue
p2444
aVroldan
p2445
aVjamaica
p2446
aVsabbato
p2447
aVpescara
p2448
aVdepraved
p2449
aVnerdiest
p2450
aVmesmerising
p2451
aVrouen
p2452
aVgazon
p2453
aVmachines
p2454
aVstardom
p2455
aVbrancia
p2456
aVeuclidean
p2457
aVoffshoots
p2458
aVrockies
p2459
aVbenben
p2460
aVpetri
p2461
aVpetra
p2462
aVpersonifies
p2463
aVviewings
p2464
aVmenage
p2465
aVspunky
p2466
aVdilapidating
p2467
aVequals
p2468
aVmetaphorically
p2469
aVprotection
p2470
aVpersonified
p2471
aVdobie
p2472
aVobtained
p2473
aVwatermelons
p2474
aVfireballs
p2475
aVrebhorn
p2476
aVstressed
p2477
aVlonesome
p2478
aVpostponed
p2479
aVurbaniak
p2480
aVbrs
p2481
aVinflicting
p2482
aVvapors
p2483
aVbro
p2484
aVlavatory
p2485
aVarchaeological
p2486
aVcompulsively
p2487
aVwiseacre
p2488
aVabsolution
p2489
aVsarah
p2490
aVdevastation
p2491
aVplow
p2492
aVplop
p2493
aVsweater
p2494
aVcoins
p2495
aVploy
p2496
aVplod
p2497
aVexacty
p2498
aVadministering
p2499
aVexacts
p2500
aVseparated
p2501
aVbombast
p2502
aVkohn
p2503
aVascribe
p2504
aVmathew
p2505
aVchampionships
p2506
aVseparates
p2507
aVunraveled
p2508
aVconditioned
p2509
aVhorks
p2510
aVblocking
p2511
aVpulitzer
p2512
aV1991
p2513
aVtnt
p2514
aV1993
p2515
aV1992
p2516
aV1995
p2517
aV1994
p2518
aV1997
p2519
aV1996
p2520
aV1999
p2521
aV1998
p2522
aVoverpowers
p2523
aVcuddly
p2524
aVdivorces
p2525
aVkarras
p2526
aVera
p2527
aVerb
p2528
aVelbow
p2529
aVerm
p2530
aVern
p2531
aVgazarra
p2532
aVrecipes
p2533
aVscripting
p2534
aVhallie
p2535
aVindicated
p2536
aVquivering
p2537
aVflung
p2538
aVwinnfield
p2539
aVheartless
p2540
aVstrangelove
p2541
aVhyperdrive
p2542
aVrepressiveness
p2543
aVimpassive
p2544
aVclubbed
p2545
aVskyler
p2546
aVmorice
p2547
aVprovide
p2548
aVnuts
p2549
aVrecovers
p2550
aVgrosbard
p2551
aVmoron
p2552
aVtitillate
p2553
aVtruthful
p2554
aVarcs
p2555
aVsordidness
p2556
aVladder
p2557
aVmemorial
p2558
aVcustoms
p2559
aVmillimeter
p2560
aVbared
p2561
aVladden
p2562
aVdumbo
p2563
aVgreediness
p2564
aVarch
p2565
aVfoundering
p2566
aVcomplacent
p2567
aVclubber
p2568
aVelusive
p2569
aVpadre
p2570
aValienate
p2571
aVschneider
p2572
aVappreciate
p2573
aVamericanization
p2574
aVpurging
p2575
aVbackwoods
p2576
aVjolting
p2577
aVdavies
p2578
aVmoroder
p2579
aVdroagon
p2580
aV_american_psycho_
p2581
aVgumption
p2582
aVscalding
p2583
aVundetected
p2584
aVmiming
p2585
aVinnovative
p2586
aVunderstates
p2587
aVchristie
p2588
aVtrager
p2589
aVproduction
p2590
aVunderstated
p2591
aVvalor
p2592
aVfleshed
p2593
aVcoffee
p2594
aVsoundbites
p2595
aVjerking
p2596
aVsafe
p2597
aVinhereit
p2598
aVcollide
p2599
aVlaconically
p2600
aVexpressionist
p2601
aVroommate
p2602
aVpenetration
p2603
aVreaches
p2604
aVexpressionism
p2605
aVcohagen
p2606
aVlifelong
p2607
aVcoffey
p2608
aVaneeka
p2609
aVpetrovsky
p2610
aVdefeaningly
p2611
aVdingo
p2612
aVreasonably
p2613
aVroutines
p2614
aVl
p2615
aVbartusiak
p2616
aVdingy
p2617
aVbottlecaps
p2618
aVreasonable
p2619
aVfearsomely
p2620
aVfeeds
p2621
aVvolcanos
p2622
aVcliquey
p2623
aVunfocused
p2624
aVdumping
p2625
aVmasseuse
p2626
aVsled
p2627
aVmaniacs
p2628
aVslew
p2629
aVchauvinistic
p2630
aVmaduro
p2631
aVdanforth
p2632
aVfleshes
p2633
aVdaniel
p2634
aVbraces
p2635
aVuuuhhmmm
p2636
aVconfections
p2637
aVjudith
p2638
aVmullen
p2639
aVmeatier
p2640
aVbarrier
p2641
aVcolorless
p2642
aVleftovers
p2643
aVdashing
p2644
aVamadeus
p2645
aVforcibly
p2646
aVenlightened
p2647
aVlollipop
p2648
aVcertified
p2649
aVrenee
p2650
aVchortled
p2651
aVdammit
p2652
aVmaniac
p2653
aVrefugee
p2654
aVleder
p2655
aVflawless
p2656
aVrenew
p2657
aVisuro
p2658
aVvanquish
p2659
aVfootsteps
p2660
aVrender
p2661
aVrailroads
p2662
aVimmolation
p2663
aVdog_
p2664
aVanother
p2665
aVantarctic
p2666
aVelectronic
p2667
aVmojo
p2668
aVillustrate
p2669
aVtimothy
p2670
aV2056
p2671
aVparting
p2672
aV2058
p2673
aVseduction
p2674
aVingen
p2675
aVapproximately
p2676
aVblurts
p2677
aVsuperweapons
p2678
aVfumble
p2679
aVcassavetes
p2680
aVjohn
p2681
aVdogs
p2682
aVlabyrinthian
p2683
aVpaltry
p2684
aVoffhand
p2685
aVwaster
p2686
aVwastes
p2687
aVscorpions
p2688
aVenmeshed
p2689
aVcereal
p2690
aVwasted
p2691
aVanachronisms
p2692
aVasssss
p2693
aVguild
p2694
aVguile
p2695
aVroelfs
p2696
aVguilt
p2697
aVhistorical
p2698
aVapparantly
p2699
aVtautness
p2700
aVrespecting
p2701
aVportraits
p2702
aVflavorful
p2703
aVenchanted
p2704
aVrefreshingly
p2705
aVcontents
p2706
aVpraising
p2707
aVscumbagginess
p2708
aVprehensile
p2709
aVconvenient
p2710
aVsaunder
p2711
aVhemingwayesque
p2712
aVsubjects
p2713
aVthundering
p2714
aVpilgrimage
p2715
aVenervation
p2716
aVgravy
p2717
aVgermann
p2718
aVbruce
p2719
aVhammond
p2720
aVgreenbaum
p2721
aVramblings
p2722
aVimmediacy
p2723
aVgermany
p2724
aVculminates
p2725
aV_dead_
p2726
aVscripts
p2727
aVgrave
p2728
aVmacfadyen
p2729
aVbracken
p2730
aVdubarry
p2731
aVswamp
p2732
aVbracket
p2733
aVaunt
p2734
aVbrinkford
p2735
aVreserve
p2736
aVoverdoes
p2737
aVstephens
p2738
aVlewis
p2739
aVscatology
p2740
aVbellow
p2741
aVdisturbs
p2742
aValferd
p2743
aVcouncilmembers
p2744
aVcapitol
p2745
aVgeyser
p2746
aVpanned
p2747
aVnullifies
p2748
aVmurtaugh
p2749
aVpfarrer
p2750
aVnullified
p2751
aVrectangle
p2752
aVcappuccino
p2753
aVtramell
p2754
aVbelaboured
p2755
aVchaney
p2756
aVuncountable
p2757
aVwisecracks
p2758
aVhaunted
p2759
aVroundabout
p2760
aVdowntime
p2761
aVvividly
p2762
aVbeleive
p2763
aVruns
p2764
aVreinvents
p2765
aVplotholia
p2766
aVemo
p2767
aVrahad
p2768
aVrune
p2769
aVgears
p2770
aVrung
p2771
aVkrupa
p2772
aVpsychoanalysts
p2773
aVscrubbed
p2774
aVsecretary
p2775
aVturmoil
p2776
aVclaymation
p2777
aVzookeeper
p2778
aVhorrendous
p2779
aVdiscussions
p2780
aVchanneling
p2781
aVoptimum
p2782
aVhairbrush
p2783
aVtechniques
p2784
aVpastel
p2785
aVdraws
p2786
aVintroversion
p2787
aVsmoggy
p2788
aVpasted
p2789
aVaway
p2790
aVimmeadiately
p2791
aVbracing
p2792
aVarcane
p2793
aVarcand
p2794
aVcooperation
p2795
aVdrawn
p2796
aVdrawl
p2797
aVencounters
p2798
aVshields
p2799
aVhuison
p2800
aVhandful
p2801
aVquirkyness
p2802
aVtransylvanians
p2803
aVdiesl
p2804
aVtaraji
p2805
aVwrestled
p2806
aVsuccumbs
p2807
aVtravellers
p2808
aVbeelzebub
p2809
aVnovalee
p2810
aVmugshots
p2811
aVkitchen
p2812
aVclimate
p2813
aVpsychologists
p2814
aVhijinx
p2815
aVhollywoodization
p2816
aVdisappears
p2817
aVtone
p2818
aVtong
p2819
aVtoni
p2820
aVupbeats
p2821
aVsobchak
p2822
aVmutations
p2823
aVcondescending
p2824
aVtons
p2825
aVinfirm
p2826
aVtony
p2827
aVtelecommunications
p2828
aVpriscilla
p2829
aVarsed
p2830
aVnoel
p2831
aVunsupportive
p2832
aVaddictions
p2833
aVsuperpowers
p2834
aVattacked
p2835
aVexcite
p2836
aVpsychically
p2837
aVustinov
p2838
aVclairvoyant
p2839
aVgiacomo
p2840
aVtakaaki
p2841
aVespoused
p2842
aVthrash
p2843
aV35th
p2844
aVcharacterizing
p2845
aVblackly
p2846
aVcont
p2847
aVkrays
p2848
aVbeetles
p2849
aVpaglia
p2850
aVseparatist
p2851
aVtissue
p2852
aVcong
p2853
aVvoges
p2854
aVconn
p2855
aV_still_
p2856
aVmatewan
p2857
aVamount
p2858
aVwriterly
p2859
aValevey
p2860
aVsynch
p2861
aVimbues
p2862
aVconfection
p2863
aVwheel
p2864
aVfuss
p2865
aVhana
p2866
aVquentin
p2867
aVhang
p2868
aVcounterparts
p2869
aVbening
p2870
aVliberties
p2871
aVkerrigans
p2872
aVfuse
p2873
aVdivison
p2874
aVhans
p2875
aVselfless
p2876
aVventuring
p2877
aVwhereby
p2878
aV1600
p2879
aVhumble
p2880
aVmia
p2881
aVclient
p2882
aVunbrewed
p2883
aVhumbly
p2884
aVsullenly
p2885
aVwopr
p2886
aVmusical
p2887
aVpronouncements
p2888
aVuniquely
p2889
aVmib
p2890
aVtraditions
p2891
aVnewton
p2892
aVthanks
p2893
aVsabbatical
p2894
aVol
p2895
aVprecipice
p2896
aVelectronically
p2897
aVjose
p2898
aVdenton
p2899
aVdorff
p2900
aVcornell
p2901
aVsimilarities
p2902
aVmediator
p2903
aVjosh
p2904
aVjost
p2905
aVwright
p2906
aVshout
p2907
aVcognac
p2908
aVjoss
p2909
aVcanoe
p2910
aVrighteous
p2911
aVsiegfried
p2912
aVinsensitive
p2913
aVmindfuck
p2914
aVtricking
p2915
aVeverton
p2916
aVdesigners
p2917
aVunfounded
p2918
aVhairless
p2919
aVpackin
p2920
aVeroded
p2921
aVsandworms
p2922
aVcooler
p2923
aVdeviance
p2924
aVpepto
p2925
aVsorvino
p2926
aVhoming
p2927
aVnight
p2928
aVanalyzing
p2929
aVrevisiting
p2930
aVcooled
p2931
aVdimitri
p2932
aVtenko
p2933
aVflatter
p2934
aVcloseups
p2935
aVchangwei
p2936
aVborn
p2937
aVcouture
p2938
aVstardust
p2939
aVflatten
p2940
aVkieslowski
p2941
aVborg
p2942
aVbore
p2943
aVconfusing
p2944
aVadorably
p2945
aVcongratulate
p2946
aVjanitorial
p2947
aVasking
p2948
aVlahore
p2949
aVmelange
p2950
aVscholl
p2951
aVadorable
p2952
aVslapping
p2953
aVparticipation
p2954
aVmatthau
p2955
aVpeek
p2956
aVbiopic
p2957
aVpeel
p2958
aVsadie
p2959
aVelucidate
p2960
aVshogun
p2961
aVarchitectural
p2962
aVsubstitution
p2963
aVpeer
p2964
aVpees
p2965
aVpeep
p2966
aVpeet
p2967
aVdeathless
p2968
aVferraris
p2969
aVgrotesquely
p2970
aV_____
p2971
aVgentler
p2972
aVaffay
p2973
aVtizard
p2974
aVhoenicker
p2975
aVhime
p2976
aVgads
p2977
aVjacques
p2978
aVguiness
p2979
aV8034
p2980
aVwasting
p2981
aVsparing
p2982
aVprofession
p2983
aVbeneficial
p2984
aVrendering
p2985
aVstumble
p2986
aVfamiliarize
p2987
aVhoodwink
p2988
aVdeception
p2989
aVconnote
p2990
aVoverblown
p2991
aVsalutory
p2992
aVobserable
p2993
aVberle
p2994
aVob
p2995
aVinfomercial
p2996
aVoverjoyed
p2997
aVdoogie
p2998
aVneedles
p2999
aVcatalyst
p3000
aVboon
p3001
aVisis
p3002
aVcrows
p3003
aVancestral
p3004
aVmaximum
p3005
aVinseminates
p3006
aVheartstrings
p3007
aVmaximus
p3008
aVfaking
p3009
aV@$&%
p3010
aVprayed
p3011
aVragtag
p3012
aVfrederick
p3013
aVstupendously
p3014
aVdostoevsky
p3015
aVguessed
p3016
aVexpertise
p3017
aVpotholes
p3018
aVprayer
p3019
aVempath
p3020
aVdisilusioned
p3021
aVdubya
p3022
aVparalells
p3023
aVsenatorial
p3024
aVevasive
p3025
aVtest
p3026
aVdynasties
p3027
aVirma
p3028
aVorlock
p3029
aVmulling
p3030
aVupdate
p3031
aVimprovisation
p3032
aVwalton
p3033
aVenthused
p3034
aVnotting
p3035
aVdetox
p3036
aVhudgeons
p3037
aVfaze
p3038
aVgheorghe
p3039
aVinterval
p3040
aVconcorde
p3041
aVbeds
p3042
aVpileggi
p3043
aVaccolade
p3044
aVbanquets
p3045
aVgutting
p3046
aVnighshift
p3047
aVsongs
p3048
aVjabbar
p3049
aVconcept
p3050
aVsilverware
p3051
aVhorseback
p3052
aVsupplement
p3053
aVsynapses
p3054
aVbattle
p3055
aVlayers
p3056
aVzeroing
p3057
aVgigs
p3058
aVaristocratic
p3059
aVdissatisfied
p3060
aVquilty
p3061
aValana
p3062
aVextols
p3063
aVperiphery
p3064
aVautomobiles
p3065
aVairing
p3066
aVvisualized
p3067
aVflammable
p3068
aVmcconaughay
p3069
aVskulduggery
p3070
aVturns
p3071
aVgun
p3072
aVgum
p3073
aVpuppeteer
p3074
aVgus
p3075
aVsoooo
p3076
aVevades
p3077
aVgut
p3078
aVseague
p3079
aVguy
p3080
aVconglomeration
p3081
aVdefinable
p3082
aVdetonated
p3083
aVpoledouris
p3084
aVagitate
p3085
aVpugilistic
p3086
aVcost
p3087
aVpopulating
p3088
aVrapist
p3089
aVthicket
p3090
aVrecommeded
p3091
aVbarbie
p3092
aVrestfulness
p3093
aVrotunno
p3094
aVforegoing
p3095
aVshares
p3096
aVpeels
p3097
aVbureaucratic
p3098
aVshared
p3099
aVgoldblum
p3100
aVcynically
p3101
aVparadoxical
p3102
aVbreakneck
p3103
aVhandyman
p3104
aVsparky
p3105
aVgiles
p3106
aVcaesella
p3107
aVteaches
p3108
aVteacher
p3109
aVmcfadden
p3110
aVsending
p3111
aVschwarztman
p3112
aVburdensome
p3113
aVbangs
p3114
aVfranklin
p3115
aVreagents
p3116
aVcuff
p3117
aVpillow
p3118
aVbangy
p3119
aVplotted
p3120
aVregardless
p3121
aVuzi
p3122
aVextra
p3123
aVsextet
p3124
aVcorruptor
p3125
aVuphill
p3126
aVsofty
p3127
aVfbi
p3128
aVnauseating
p3129
aVfirearm
p3130
aVdisguising
p3131
aVbetsy
p3132
aVcohesiveness
p3133
aVcaptivate
p3134
aVsymbolizes
p3135
aVunctuous
p3136
aVcoalesce
p3137
aVwonderfully
p3138
aVyoko
p3139
aVsymbolized
p3140
aVintently
p3141
aVrainfall
p3142
aVabrams
p3143
aVimrie
p3144
aVnguyen
p3145
aVsanctimony
p3146
aVrelentlessy
p3147
aVbarcalow
p3148
aVwarchus
p3149
aVghidrah
p3150
aVdecked
p3151
aVdefeats
p3152
aVdmitri
p3153
aVsavoy
p3154
aVdecker
p3155
aVintros
p3156
aVcommemorate
p3157
aVwoefully
p3158
aVdiddley
p3159
aVtrans
p3160
aVfracturing
p3161
aVgales
p3162
aVchip
p3163
aVchit
p3164
aVchin
p3165
aVexclude
p3166
aVchic
p3167
aVchia
p3168
aVoccur
p3169
aVdiscussion
p3170
aVspreads
p3171
aVgiveaways
p3172
aVlounge
p3173
aVklumps
p3174
aVstrays
p3175
aVdeteriorate
p3176
aVarmies
p3177
aVproduct
p3178
aValger
p3179
aVpeerless
p3180
aVescalate
p3181
aVornery
p3182
aVdisgusted
p3183
aVhedley
p3184
aVproduce
p3185
aVthurgood
p3186
aVheterosexuals
p3187
aVdrastic
p3188
aVnoses
p3189
aVgrandson
p3190
aVtuptim
p3191
aVirwin
p3192
aVberets
p3193
aVamercian
p3194
aVnosed
p3195
aVdeconstruction
p3196
aVlaff
p3197
aVkurt
p3198
aVclarke
p3199
aVopts
p3200
aVsuddeth
p3201
aVserving
p3202
aVtwitchy
p3203
aVbarnyard
p3204
aVsoc
p3205
aVledger
p3206
aVbrain
p3207
aVaffirms
p3208
aVstill
p3209
aVsnippet
p3210
aVsorderbergh
p3211
aVsaxon
p3212
aVfactual
p3213
aVtiara
p3214
aVemigrants
p3215
aVcorrespondence
p3216
aVnom
p3217
aVnon
p3218
aVnorad
p3219
aVbroadsword
p3220
aVnod
p3221
aVintroduce
p3222
aVsol
p3223
aVadrenaline
p3224
aVwealthy
p3225
aVnot
p3226
aVnov
p3227
aVnow
p3228
aVnor
p3229
aVinversion
p3230
aVplacate
p3231
aVundermining
p3232
aVdrop
p3233
aVblockheaded
p3234
aVcannibalistic
p3235
aVhauff
p3236
aVraiser
p3237
aVunloaded
p3238
aVconsummated
p3239
aVprompted
p3240
aVchallenged
p3241
aVyeah
p3242
aVhitmen
p3243
aVchallenges
p3244
aVchallenger
p3245
aVreplay
p3246
aVyeas
p3247
aVyear
p3248
aVnaming
p3249
aVbuzzcocks
p3250
aVtried
p3251
aVfunnest
p3252
aVfurthermore
p3253
aVsitters
p3254
aVthirst
p3255
aVwholeheartedly
p3256
aVpharoah
p3257
aVadvantaged
p3258
aVodoriferous
p3259
aVdivergence
p3260
aVpalotti
p3261
aVtrendily
p3262
aVunwanted
p3263
aVgaffe
p3264
aVdlose
p3265
aVappealingly
p3266
aVcycles
p3267
aVcontemplation
p3268
aVfa
p3269
aVtransition
p3270
aVunsung
p3271
aVfc
p3272
aVtangled
p3273
aVinvitation
p3274
aVziembicki
p3275
aValtitude
p3276
aVblind
p3277
aVromania
p3278
aVachingly
p3279
aVleguizimo
p3280
aVpantaeva
p3281
aVcapades
p3282
aVflipping
p3283
aVblink
p3284
aVrink
p3285
aVfi
p3286
aVring
p3287
aVtame
p3288
aVrina
p3289
aVtomorrow
p3290
aVlibidinous
p3291
aVbatinkoff
p3292
aVthankless
p3293
aVremotely
p3294
aVhummm
p3295
aVfreebie
p3296
aVdunces
p3297
aVmegalomaniac
p3298
aVfo
p3299
aVsitations
p3300
aVfairfolk
p3301
aVbrainy
p3302
aVuninformed
p3303
aVpittsburgh
p3304
aVbrains
p3305
aVappreciates
p3306
aV1500s
p3307
aVappearence
p3308
aVjunkyard
p3309
aVsmirkingly
p3310
aVheretical
p3311
aVappreciated
p3312
aVgreenwood
p3313
aVprofessionals
p3314
aVunderwritten
p3315
aVrelocating
p3316
aVtransferred
p3317
aVshyamalan
p3318
aVvocals
p3319
aVcymbals
p3320
aVactioners
p3321
aVorwell
p3322
aVoverdosing
p3323
aVchinlund
p3324
aVbugs
p3325
aVloki
p3326
aVwindsor
p3327
aVsnorting
p3328
aVhazardus
p3329
aVsockful
p3330
aVrenewing
p3331
aVequipment
p3332
aVespousing
p3333
aVyoungstein
p3334
aVmicrophage
p3335
aVshallows
p3336
aVattractiveness
p3337
aVneatly
p3338
aVintergalactic
p3339
aVimportantly
p3340
aVamerica
p3341
aVparlays
p3342
aVsaintliness
p3343
aVreform
p3344
aVimplications
p3345
aVpremiered
p3346
aVmrs
p3347
aVpremieres
p3348
aVgrizzled
p3349
aVsteadi
p3350
aVdiscoverer
p3351
aVunexpectantly
p3352
aVhairpin
p3353
aVdiscovered
p3354
aVteamed
p3355
aVperfekt
p3356
aV_andre_
p3357
aVrenaldi
p3358
aVsnack
p3359
aVcollegue
p3360
aVadolf
p3361
aVblessedly
p3362
aVnicoletta
p3363
aVnicolette
p3364
aVembittered
p3365
aVpreternatural
p3366
aVenriched
p3367
aVchopin
p3368
aVstain
p3369
aVshrill
p3370
aVbruno
p3371
aVamateurs
p3372
aVgranddaddy
p3373
aVduel
p3374
aVtruffaut
p3375
aVstroll
p3376
aVshakedown
p3377
aVmusetta
p3378
aVoctogenarian
p3379
aVosbourne
p3380
aVburst
p3381
aVincarcerated
p3382
aVchildbearings
p3383
aVactively
p3384
aVflirtatiously
p3385
aVshriker
p3386
aVsuspects
p3387
aVrozema
p3388
aVglaze
p3389
aVrollicking
p3390
aVthrillerism
p3391
aV_dirty_work_
p3392
aVink
p3393
aValtercation
p3394
aVunanimous
p3395
aVorchestrate
p3396
aVtranspose
p3397
aVregretful
p3398
aVsoldering
p3399
aVhurts
p3400
aVmarriageable
p3401
aVmoans
p3402
aVwarhol
p3403
aVyorick
p3404
aVresides
p3405
aVnile
p3406
aVyammering
p3407
aVdowntrodden
p3408
aVoverexcited
p3409
aVmadness
p3410
aVforeboding
p3411
aVjeans
p3412
aV153
p3413
aVinexplicable
p3414
aVattachs
p3415
aVinexplicably
p3416
aV152
p3417
aVperpetrators
p3418
aVcharismatic
p3419
aVbrats
p3420
aVmuttered
p3421
aVundercuts
p3422
aVsawalha
p3423
aVgynecomastia
p3424
aVmacnamara
p3425
aVtropical
p3426
aVdictator
p3427
aVentices
p3428
aVpartisanship
p3429
aVodessa
p3430
aVstraying
p3431
aVmonsieur
p3432
aVelvis
p3433
aVcommenting
p3434
aVgoran
p3435
aVsuspected
p3436
aVwinks
p3437
aVoffbeat
p3438
aVscum
p3439
aVimplacable
p3440
aVspungen
p3441
aVconcubines
p3442
aVmucus
p3443
aVinflatable
p3444
aVfigurines
p3445
aVstewardess
p3446
aV92ve
p3447
aVkorben
p3448
aVwaterway
p3449
aVmetered
p3450
aVirene
p3451
aVmisanthropy
p3452
aVrisqu
p3453
aVdevelop
p3454
aVgediman
p3455
aVquagmire
p3456
aVcontortions
p3457
aVreprintable
p3458
aVenigmatical
p3459
aVmeteorological
p3460
aVfoam
p3461
aVawarding
p3462
aVgenuises
p3463
aVplops
p3464
aVleer
p3465
aVnandita
p3466
aVcarhart
p3467
aVeventual
p3468
aVirresistable
p3469
aVbagpipes
p3470
aVsnarfed
p3471
aVguinevere
p3472
aVdemean
p3473
aValleviate
p3474
aVtaxi
p3475
aVlivestock
p3476
aVbattleship
p3477
aVneon
p3478
aVmoviestar
p3479
aV_breakfast_of_champions_
p3480
aVfoot
p3481
aVcompromising
p3482
aVmaternity
p3483
aVcrowns
p3484
aVrenewed
p3485
aVrescored
p3486
aVverse
p3487
aVserous
p3488
aVmotherless
p3489
aVversa
p3490
aVkareem
p3491
aVami
p3492
aVstunk
p3493
aVonscreen
p3494
aVamc
p3495
aVkatana
p3496
aVgonna
p3497
aVditz
p3498
aVamy
p3499
aVearnest
p3500
aVpermanence
p3501
aVramshackle
p3502
aVstunt
p3503
aVambushes
p3504
aVfortune
p3505
aVheightened
p3506
aVcheerily
p3507
aVunrequited
p3508
aVconducts
p3509
aVyearnings
p3510
aVoutdoorsman
p3511
aVveering
p3512
aVoutput
p3513
aV_54_
p3514
aVtwelve
p3515
aVfalsehood
p3516
aVverbal
p3517
aVexposed
p3518
aVsentimentally
p3519
aVtragedies
p3520
aVexposes
p3521
aVdebello
p3522
aVzealously
p3523
aVwittliff
p3524
aVderisive
p3525
aVregina
p3526
aVmanipulator
p3527
aVunlocked
p3528
aVstandbys
p3529
aVbabysitter
p3530
aVgarret
p3531
aVguillaume
p3532
aVpropagating
p3533
aVsarandon
p3534
aVfractures
p3535
aV=====================
p3536
aVsenitmental
p3537
aVsixth
p3538
aVfrancie
p3539
aVaquit
p3540
aVinnocence
p3541
aVassemble
p3542
aVfrancis
p3543
aVaphrodite
p3544
aVcreaking
p3545
aVjungian
p3546
aVpiety
p3547
aVbushido
p3548
aVcameraderie
p3549
aVideology
p3550
aVmugging
p3551
aVpalma
p3552
aVcarribean
p3553
aVbackup
p3554
aVbackus
p3555
aVfreeing
p3556
aVoutlook
p3557
aVcleaves
p3558
aVstar_
p3559
aVshrinking
p3560
aVintervention
p3561
aVstare
p3562
aVshags
p3563
aVqualifying
p3564
aVstark
p3565
aVstart
p3566
aVhammiest
p3567
aVreportage
p3568
aVstars
p3569
aVteamwork
p3570
aVallergic
p3571
aVhomeboys
p3572
aVlasseter
p3573
aVsmuggling
p3574
aVpitcher
p3575
aVpitches
p3576
aVtamiyo
p3577
aVphilosophers
p3578
aVmanipulative
p3579
aVrecouped
p3580
aVomelet
p3581
aVdomingo
p3582
aVpitched
p3583
aVhighness
p3584
aVfraud
p3585
aVillustrator
p3586
aVembedded
p3587
aVdefault
p3588
aVfreddy
p3589
aVwaltzing
p3590
aV']
p3591
aV607
p3592
aVhumpalot
p3593
aV600
p3594
aVtransporters
p3595
aVsquishy
p3596
aVmacbeth
p3597
aVtaghmaoui
p3598
aVstigmata
p3599
aVelmaloglou
p3600
aVimmobilise
p3601
aVinspections
p3602
aVcabinets
p3603
aVinfact
p3604
aVterminating
p3605
aVfools
p3606
aVforcing
p3607
aVpoor
p3608
aVpoop
p3609
aVtreks
p3610
aVdiaries
p3611
aVcazale
p3612
aVendeavors
p3613
aVwhistling
p3614
aVpoof
p3615
aVpooh
p3616
aVnewlyweds
p3617
aVpoon
p3618
aVpool
p3619
aVtitillating
p3620
aVsmooch
p3621
aVcored
p3622
aVmoonlight
p3623
aVcorey
p3624
aVsatirize
p3625
aVprying
p3626
aVoverseas
p3627
aVvadis
p3628
aVsemantic
p3629
aVguelph
p3630
aVceases
p3631
aVmonth
p3632
aVunrest
p3633
aVthoughtful
p3634
aVreligious
p3635
aVmonty
p3636
aVcorps
p3637
aVpledged
p3638
aVwyoming
p3639
aVdanielle
p3640
aVblanco
p3641
aVundiscernable
p3642
aVfountain
p3643
aVpledges
p3644
aVoleynik
p3645
aVdeedle
p3646
aVresounding
p3647
aVpatently
p3648
aVaugustin
p3649
aVhorror
p3650
aVcoloured
p3651
aVshamed
p3652
aVdecide
p3653
aVcrossan
p3654
aV150th
p3655
aVmultihued
p3656
aVnbk
p3657
aVceaseless
p3658
aVsaboteur
p3659
aVanal
p3660
aVlocomotive
p3661
aVrealisticly
p3662
aVdoofy
p3663
aVlulls
p3664
aVdussander
p3665
aVstreets
p3666
aVorgasm
p3667
aVasp
p3668
aVneuromancer
p3669
aVheralds
p3670
aVbefriends
p3671
aVhamper
p3672
aVchuckle
p3673
aVdunn
p3674
aVcaprenter
p3675
aVcues
p3676
aVexhilaratingly
p3677
aVinvesting
p3678
aVzealots
p3679
aVlurch
p3680
aVcued
p3681
aVbernhard
p3682
aVlearned
p3683
aVkinsella
p3684
aVferocious
p3685
aVsabara
p3686
aVbitchin
p3687
aVtracks
p3688
aVbribes
p3689
aVpub
p3690
aVexcess
p3691
aVeventful
p3692
aVarena
p3693
aVconviction
p3694
aVinspired
p3695
aVlosses
p3696
aVbase
p3697
aVadvertising
p3698
aV_all_
p3699
aVbitchie
p3700
aVcathy
p3701
aVsuccessors
p3702
aVinspires
p3703
aVmarginal
p3704
aVreturing
p3705
aVput
p3706
aVasexually
p3707
aVdispondent
p3708
aVseventeenth
p3709
aVconventional
p3710
aVnehru
p3711
aVladybugs
p3712
aVchaotic
p3713
aVbash
p3714
aVgaetan
p3715
aVcannibalism
p3716
aVlowering
p3717
aVpetrucelli
p3718
aVfairman
p3719
aVdion
p3720
aVworkplaces
p3721
aV7000
p3722
aVlazard
p3723
aVproducing
p3724
aVellicit
p3725
aVhotchner
p3726
aVgolberg
p3727
aVpollack
p3728
aVmccracken
p3729
aVpetaluma
p3730
aVbudgets
p3731
aVinfectuous
p3732
aVcasanova
p3733
aVtenets
p3734
aVrejuvenate
p3735
aVpublicist
p3736
aVbarzoon
p3737
aVphrase
p3738
aVcubism
p3739
aVicing
p3740
aVsheikh
p3741
aVcheering
p3742
aVutilize
p3743
aVsurpassed
p3744
aVsigourney
p3745
aVdismembering
p3746
aVbenzali
p3747
aVreject
p3748
aVsurpasses
p3749
aVschultz
p3750
aVmaltin
p3751
aVphillipie
p3752
aVcommunicating
p3753
aVwinnebago
p3754
aVauthoritive
p3755
aVcontinute
p3756
aV_not_
p3757
aVgrinder
p3758
aVhorizontal
p3759
aVcompulsory
p3760
aVdiabolically
p3761
aVcriticize
p3762
aVexcitment
p3763
aVanytime
p3764
aVsodomy
p3765
aVdaggers
p3766
aVroommates
p3767
aVchopsticks
p3768
aVaffirmations
p3769
aVrationality
p3770
aVzanetti
p3771
aVremnants
p3772
aVcasablanca
p3773
aVbruskotter
p3774
aV_election
p3775
aVlovebirds
p3776
aVthermal
p3777
aVules
p3778
aVbooboos
p3779
aVclarinet
p3780
aVjansen
p3781
aVpicard
p3782
aVencoding
p3783
aVabsence
p3784
aVsystems
p3785
aVheros
p3786
aVfriendliest
p3787
aVcuriousity
p3788
aVcutie
p3789
aVpleads
p3790
aVcurtis
p3791
aVceo
p3792
aVdietl
p3793
aVburkhart
p3794
aVmusker
p3795
aVstarbucks
p3796
aVstorywise
p3797
aVninja
p3798
aVpetter
p3799
aVburkhard
p3800
aVslighted
p3801
aVbryan
p3802
aVfaire
p3803
aVelder
p3804
aV}
p3805
aVdurden
p3806
aVpredators
p3807
aVfairy
p3808
aVobligated
p3809
aVlifestyles
p3810
aVpredatory
p3811
aVflashbacks
p3812
aVrestless
p3813
aVjaws
p3814
aVexasperated
p3815
aVballistics
p3816
aVmcgruder
p3817
aVjawa
p3818
aVabsurdity
p3819
aVanarchy
p3820
aVunsurpassed
p3821
aVmarcie
p3822
aVwedlock
p3823
aVmarcia
p3824
aVmiss
p3825
aVmalcontents
p3826
aVmidsection
p3827
aVjolly
p3828
aVcoincidences
p3829
aVsafety
p3830
aV7
p3831
aVunfailingly
p3832
aVearns
p3833
aVhoused
p3834
aVfavored
p3835
aVtoiling
p3836
aVhouser
p3837
aVhouses
p3838
aVjohnnie
p3839
aVhedaya
p3840
aVbrightest
p3841
aVstraightened
p3842
aVhapless
p3843
aVspeculation
p3844
aVdishwasher
p3845
aVunresolved
p3846
aVamericas
p3847
aVbenji
p3848
aVamerican
p3849
aVveloz
p3850
aVmatarazzo
p3851
aVapocalypse
p3852
aVhouse_
p3853
aVdrooling
p3854
aVtakers
p3855
aVwatchdogs
p3856
aVmoritz
p3857
aVmorita
p3858
aVcraps
p3859
aVeffortless
p3860
aVintellectualism
p3861
aVvisions
p3862
aVequating
p3863
aVhorse
p3864
aVeightly
p3865
aVbakula
p3866
aVblossom
p3867
aVdryburgh
p3868
aVstation
p3869
aVseafaring
p3870
aVrefilmed
p3871
aVhundred
p3872
aVmerciless
p3873
aVoverstaying
p3874
aVtrapped
p3875
aV1919
p3876
aVtrapper
p3877
aVboredom
p3878
aVrienfenstal
p3879
aV1913
p3880
aV1912
p3881
aV1914
p3882
aV1916
p3883
aVassaulted
p3884
aVmiseries
p3885
aVgrey
p3886
aVhesitating
p3887
aVswanbeck
p3888
aVgreg
p3889
aVtoward
p3890
aVcomedically
p3891
aVcharlotte
p3892
aVphobia
p3893
aVcontraception
p3894
aVtypecasted
p3895
aVtearfully
p3896
aVorgana
p3897
aVrandomly
p3898
aVblissful
p3899
aVorgans
p3900
aVboorish
p3901
aVadrift
p3902
aVcherokee
p3903
aVcave
p3904
aVvomitted
p3905
aVoffscreen
p3906
aVcaliber
p3907
aVhires
p3908
aVwallpaperer
p3909
aVhired
p3910
aVaires
p3911
aVcomparisons
p3912
aVunbeknownst
p3913
aVhypotheitically
p3914
aVraving
p3915
aVballyhoo
p3916
aVsturdy
p3917
aVmottled
p3918
aVrockefeller
p3919
aVhumbert
p3920
aVginty
p3921
aVvelocity
p3922
aVmckenney
p3923
aVphysics
p3924
aVtakashi
p3925
aVstalked
p3926
aVphenomenon
p3927
aVnetherworld
p3928
aVineffectuality
p3929
aVserialised
p3930
aVstalker
p3931
aVstores
p3932
aVkeital
p3933
aVheavens
p3934
aValbums
p3935
aVdistressing
p3936
aVjustice
p3937
aVindiglo
p3938
aVcriticising
p3939
aVrotterdam
p3940
aVtarkofsky
p3941
aVretorts
p3942
aVfinancing
p3943
aVstrut
p3944
aVfeels
p3945
aVharwich
p3946
aVpretending
p3947
aVcompeting
p3948
aVboils
p3949
aVimitating
p3950
aVbidets
p3951
aV===========
p3952
aVadlib
p3953
aVeldard
p3954
aVboost
p3955
aVretaliation
p3956
aVstored
p3957
aVhype
p3958
aVforster
p3959
aVhowled
p3960
aVpatriotism
p3961
aVlocale
p3962
aVculture
p3963
aVhowler
p3964
aVportrait
p3965
aVgouda
p3966
aVlocals
p3967
aVtermites
p3968
aVcolonialists
p3969
aVstu
p3970
aVpictures
p3971
aVtolls
p3972
aVmonroth
p3973
aVhonour
p3974
aVwether
p3975
aVpictured
p3976
aVzippel
p3977
aVmissing
p3978
aVzipped
p3979
aVspray
p3980
aVranked
p3981
aVfluently
p3982
aVzipper
p3983
aVabruptly
p3984
aVhoisted
p3985
aVcollaborators
p3986
aVcashing
p3987
aVchastising
p3988
aVrehired
p3989
aVforgotten
p3990
aVhippest
p3991
aVvault
p3992
aVaudiotapes
p3993
aVexperimental
p3994
aVcoifed
p3995
aVunderseen
p3996
aVexpendable
p3997
aVffing
p3998
aVunfolded
p3999
aVjitterish
p4000
aV289
p4001
aVcelluloid
p4002
aVirresponsibility
p4003
aVthreated
p4004
aVthreaten
p4005
aVtestings
p4006
aVempty
p4007
aVgreenlighted
p4008
aVlived
p4009
aVliven
p4010
aVatmospherically
p4011
aVmodelling
p4012
aVlives
p4013
aVconfusions
p4014
aVplaythings
p4015
aVfurrow
p4016
aVpact
p4017
aVintriguing
p4018
aVariyan
p4019
aVunconvincingly
p4020
aVwyatt
p4021
aVpace
p4022
aVkara
p4023
aVaccidently
p4024
aVought
p4025
aVguido
p4026
aVlive_
p4027
aVgmt
p4028
aVrichter
p4029
aVhooters
p4030
aVpack
p4031
aVsmacked
p4032
aVcostly
p4033
aVpornos
p4034
aVembroidered
p4035
aV00s
p4036
aVbrauva
p4037
aVmerienbad
p4038
aVqueue
p4039
aVgrant
p4040
aVmakeshift
p4041
aVsensual
p4042
aVgrand
p4043
aVirregulars
p4044
aVcomposition
p4045
aVshowcased
p4046
aVaddams
p4047
aVfatty
p4048
aVrhames
p4049
aVlie
p4050
aVbanter
p4051
aVblair
p4052
aVyoungsters
p4053
aV000
p4054
aV007
p4055
aVvitriol
p4056
aVgravesite
p4057
aVobviously
p4058
aVdalmations
p4059
aVsynopsis
p4060
aVmoby
p4061
aVchainsaws
p4062
aVraimi
p4063
aVmobs
p4064
aVspeculative
p4065
aVhenna
p4066
aVexploits
p4067
aVbearer
p4068
aVmembrance
p4069
aVtransference
p4070
aVtechnicians
p4071
aVreviewed
p4072
aVdevastatingly
p4073
aVreviewer
p4074
aVinformal
p4075
aVnikki
p4076
aVsunhill
p4077
aVshortcut
p4078
aVjerod
p4079
aVquestioned
p4080
aVluhrmann
p4081
aVcatchphrases
p4082
aVshowing
p4083
aVoutsmarts
p4084
aVrudner
p4085
aVdearly
p4086
aVcinemascope
p4087
aVparodizing
p4088
aVpunishments
p4089
aVvests
p4090
aVexcluding
p4091
aVbaseness
p4092
aVenvisioned
p4093
aVeet
p4094
aVoncoming
p4095
aValtough
p4096
aVeel
p4097
aVeek
p4098
aVpopular
p4099
aVsoftness
p4100
aVsnappiness
p4101
aVbelabors
p4102
aVcarcass
p4103
aVsketch
p4104
aVfraker
p4105
aVneumann
p4106
aVconey
p4107
aVlips
p4108
aVeconomic
p4109
aVcallousness
p4110
aVgracie
p4111
aVenvied
p4112
aVdilapidated
p4113
aVspouting
p4114
aVfrauds
p4115
aVcompetitions
p4116
aVconfounds
p4117
aVvinterberg
p4118
aVsimmer
p4119
aVblusterous
p4120
aVsleezebag
p4121
aVreon
p4122
aVsquirrel
p4123
aVanecdotes
p4124
aVbenefactor
p4125
aVopposes
p4126
aVquota
p4127
aVmerrick
p4128
aVassists
p4129
aVviewpoints
p4130
aVnegatives
p4131
aVarizonians
p4132
aVsmothered
p4133
aVflake
p4134
aVwhazoo
p4135
aVkaleidoscope
p4136
aVsilence
p4137
aVhounding
p4138
aVmills
p4139
aVdiametrically
p4140
aVmaudit
p4141
aValison
p4142
aVreworked
p4143
aVunown
p4144
aVinfuriating
p4145
aVtrendsetters
p4146
aVmurrieta
p4147
aVplacing
p4148
aVvisas
p4149
aVdukas
p4150
aVaftertaste
p4151
aVweightiness
p4152
aVtobey
p4153
aVwithholding
p4154
aVmasturbation
p4155
aVcomanding
p4156
aVtragically
p4157
aVinjection
p4158
aVsexualized
p4159
aVdrifters
p4160
aVchomp
p4161
aVtheoretical
p4162
aVpolitic
p4163
aVdarlanne
p4164
aVsimilar
p4165
aVhesitantly
p4166
aVordered
p4167
aVaccessibility
p4168
aVwinterbottom
p4169
aVevocative
p4170
aVsagemiller
p4171
aVsurmise
p4172
aVancestors
p4173
aVamounts
p4174
aVcreeper
p4175
aVfears
p4176
aVapplication
p4177
aVdepartment
p4178
aVsv2
p4179
aVmanhattan
p4180
aVeerily
p4181
aVcreeped
p4182
aVsmiles
p4183
aVvenerable
p4184
aVsmiley
p4185
aVafterglow
p4186
aVgraphically
p4187
aVsmiled
p4188
aVaesthetically
p4189
aVcorrelated
p4190
aVe
p4191
aVcomplicating
p4192
aVdvd
p4193
aVresolving
p4194
aVorbit
p4195
aVutilised
p4196
aVcorrelates
p4197
aVbribe
p4198
aVeverywhere
p4199
aVunderrated
p4200
aVjurgen
p4201
aVgd
p4202
aVjittering
p4203
aVghibli
p4204
aVegomania
p4205
aVcompact
p4206
aVbarnett
p4207
aVfriendly
p4208
aVchrichton
p4209
aVcmaeron
p4210
aVprydain
p4211
aVend
p4212
aVwave
p4213
aVrenoir
p4214
aVfelicity
p4215
aVrattling
p4216
aVtelling
p4217
aVyourselves
p4218
aVtenet
p4219
aVnausea
p4220
aValanis
p4221
aVsublimely
p4222
aVmeticulously
p4223
aVpositions
p4224
aVconstitution
p4225
aVcompassionate
p4226
aVmichael
p4227
aVwatered
p4228
aVryan
p4229
aVsprouse
p4230
aVenforce
p4231
aVmacleod
p4232
aVpepper
p4233
aVjump
p4234
aVredone
p4235
aVmuffs
p4236
aVsultans
p4237
aVnotwithstanding
p4238
aVvampira
p4239
aVvampire
p4240
aVconning
p4241
aVcassie
p4242
aVupsetting
p4243
aVkidnapper
p4244
aVradicals
p4245
aVbrunet
p4246
aVkidnapped
p4247
aVconvert
p4248
aVgent
p4249
aVstubbornness
p4250
aVavaricious
p4251
aVclubish
p4252
aVgene
p4253
aVsalvation
p4254
aVgena
p4255
aVexorbitance
p4256
aVforesee
p4257
aVtransformations
p4258
aVclark
p4259
aVclare
p4260
aVmanage
p4261
aVclara
p4262
aVreprimands
p4263
aVbuildup
p4264
aVkraftwerk
p4265
aVhandfuls
p4266
aVmatchsticks
p4267
aVaalyah
p4268
aVcrewmates
p4269
aVcamera
p4270
aV_no
p4271
aVdevotedly
p4272
aVpinnochio
p4273
aVhistorically
p4274
aV_matewan_
p4275
aVformally
p4276
aVquicksand
p4277
aVvisibility
p4278
aVcharming
p4279
aVrivalry
p4280
aVappointed
p4281
aVmeek
p4282
aVconsort
p4283
aVlapse
p4284
aVmatzo
p4285
aVanimted
p4286
aVshelton
p4287
aVantionio
p4288
aVmeet
p4289
aVphantastic
p4290
aVunveiled
p4291
aVlinks
p4292
aVrisque
p4293
aVpulling
p4294
aVblaine
p4295
aVsought
p4296
aVdevouring
p4297
aVhypnotize
p4298
aVorson
p4299
aVpicturesque
p4300
aV230
p4301
aVmildred
p4302
aVrohmer
p4303
aVmclachlan
p4304
aVstockard
p4305
aVsentiments
p4306
aVmcnaughton
p4307
aVtalal
p4308
aVinstinctively
p4309
aVnarc
p4310
aVembellished
p4311
aVfare
p4312
aVfarm
p4313
aVoutdid
p4314
aVrestrict
p4315
aVronald
p4316
aVfart
p4317
aVfouled
p4318
aVdalliances
p4319
aValibis
p4320
aVsledgehammers
p4321
aVoogie
p4322
aVottman
p4323
aVsigel
p4324
aVscoop
p4325
aVprays
p4326
aVencyclopedia
p4327
aVdesensitized
p4328
aVfavourites
p4329
aV67
p4330
aVsigmoid
p4331
aVgoodniks
p4332
aVwoodenly
p4333
aVgunman
p4334
aVcostume
p4335
aVreferencing
p4336
aVsocky
p4337
aVappelation
p4338
aVhirschfeld
p4339
aVtemporal
p4340
aVhanson
p4341
aV_matrix_
p4342
aVgymnasts
p4343
aVpreexisting
p4344
aVfrontal
p4345
aVgels
p4346
aVstout
p4347
aVeckhart
p4348
aVyugo
p4349
aVkilometres
p4350
aVuniversity
p4351
aVboringly
p4352
aVslide
p4353
aVfirings
p4354
aVfrickin
p4355
aV|
p4356
aVprevailing
p4357
aVindulgently
p4358
aVankles
p4359
aVnirto
p4360
aVpursuits
p4361
aVconstitute
p4362
aVsupermodel
p4363
aVinvestigative
p4364
aVnegin
p4365
aVseparating
p4366
aVtransitions
p4367
aVspecial
p4368
aVbutch
p4369
aVobliterates
p4370
aVkilrathi
p4371
aVbraxton
p4372
aVmcmahon
p4373
aVentertainment
p4374
aVarmor
p4375
aVtreville
p4376
aVgranddaughters
p4377
aVobsessive
p4378
aVpayroll
p4379
aVgalaxies
p4380
aVdelegates
p4381
aVdarkly
p4382
aVjill
p4383
aVamato
p4384
aVimprovisational
p4385
aVsneer
p4386
aVridge
p4387
aVtimex
p4388
aVdetermining
p4389
aVlaxative
p4390
aVtimer
p4391
aVtimes
p4392
aVconfrontations
p4393
aVprojectile
p4394
aVtimed
p4395
aVhumphrey
p4396
aVoutrunning
p4397
aVmaddened
p4398
aVhendren
p4399
aVcrams
p4400
aVpowerful
p4401
aVcramp
p4402
aVextemely
p4403
aVobeying
p4404
aVbitch
p4405
aVrosaleen
p4406
aVtinkering
p4407
aVbacktrack
p4408
aVwrapper
p4409
aVlifetimes
p4410
aVwrapped
p4411
aVcorona
p4412
aVharmon
p4413
aVnastiest
p4414
aVstuntwork
p4415
aVrecants
p4416
aVcraziest
p4417
aVoutboard
p4418
aVwazoo
p4419
aVinnovate
p4420
aVchemicals
p4421
aVcryptically
p4422
aVtatopolous
p4423
aVsubgenre
p4424
aVnewlywed
p4425
aVhines
p4426
aVcatered
p4427
aVcharacterizations
p4428
aVthrashing
p4429
aVsidetracked
p4430
aVsubmitted
p4431
aVsuccinctly
p4432
aVsr
p4433
aVamidala
p4434
aVexfoliating
p4435
aVtrashiest
p4436
aVjulian
p4437
aVhorrors
p4438
aVenforcer
p4439
aVenforces
p4440
aVearful
p4441
aVmetaphysics
p4442
aV_come_
p4443
aVbastard
p4444
aVpsychodramas
p4445
aVinhabiting
p4446
aVbladed
p4447
aVpushups
p4448
aVbattles
p4449
aVbattler
p4450
aVbloodbath
p4451
aVjaunt
p4452
aVgrounding
p4453
aVbattled
p4454
aVblades
p4455
aVvenereal
p4456
aVschwarzbaum
p4457
aVduels
p4458
aVveronique
p4459
aVvengeance
p4460
aVcounterbalance
p4461
aVintrinsic
p4462
aVjurek
p4463
aVmisadvertised
p4464
aVlandscaping
p4465
aVurl
p4466
aVurn
p4467
aVindy
p4468
aVoverhearing
p4469
aVastonishing
p4470
aVskunk
p4471
aVpenleric
p4472
aV$$$
p4473
aVredheads
p4474
aVtolkien
p4475
aVtelepathically
p4476
aVhalting
p4477
aVdiametric
p4478
aVunderdevelopment
p4479
aVobsequious
p4480
aVunfinished
p4481
aVsheriff
p4482
aVcicely
p4483
aVnitrous
p4484
aVbrighten
p4485
aVreceptors
p4486
aVprotgaonist
p4487
aVhector
p4488
aVcameos
p4489
aVinherited
p4490
aVinseperable
p4491
aVachieve
p4492
aVembroidery
p4493
aVscintillating
p4494
aVkops
p4495
aVtobacco
p4496
aVcoaxes
p4497
aVimperious
p4498
aVyearn
p4499
aVtuned
p4500
aVartagnon
p4501
aVtunes
p4502
aVwidow
p4503
aValbania
p4504
aVshrouded
p4505
aVcanine
p4506
aVoperates
p4507
aVofficials
p4508
aVdemolishes
p4509
aVmironoff
p4510
aVnightmare
p4511
aVillusory
p4512
aVsouthward
p4513
aVtend
p4514
aVgraceful
p4515
aVtyra
p4516
aVhummana
p4517
aVtens
p4518
aVantler
p4519
aVtent
p4520
aVken
p4521
aVkel
p4522
aVjoanou
p4523
aVkeg
p4524
aVsupernova
p4525
aVavid
p4526
aVinterfere
p4527
aVkicking
p4528
aVmerry
p4529
aVthade
p4530
aVker
p4531
aVhits
p4532
aVinundate
p4533
aVsniff
p4534
aVlimits
p4535
aVolga
p4536
aVmonstrously
p4537
aVharmonies
p4538
aVstrains
p4539
aVrevitalized
p4540
aVbellboy
p4541
aVestimation
p4542
aVsubtitle
p4543
aVtuesday
p4544
aVparanormal
p4545
aVinspite
p4546
aVerased
p4547
aVaccomplishing
p4548
aVcent
p4549
aVoutlaws
p4550
aVimmense
p4551
aVliberals
p4552
aVroomate
p4553
aVposthlewaite
p4554
aVeraser
p4555
aVheigh
p4556
aVufos
p4557
aVtroopers
p4558
aVheigl
p4559
aVshoulders
p4560
aVcontrolled
p4561
aVretrospective
p4562
aVguerrillas
p4563
aVcontroller
p4564
aVabortions
p4565
aV_the_fugitive_
p4566
aVunamusing
p4567
aVsmoking
p4568
aVflatulating
p4569
aV_mafia_
p4570
aVdynamism
p4571
aVadulterer
p4572
aVexamines
p4573
aVexaminer
p4574
aVevelyn
p4575
aVsurface
p4576
aVsimone
p4577
aVexamined
p4578
aVhearted
p4579
aVcommentators
p4580
aVgoodfellas
p4581
aVidentities
p4582
aVautism
p4583
aVparts
p4584
aVspeaker
p4585
aVnorthwest
p4586
aVklugman
p4587
aVparty
p4588
aVhttp
p4589
aVimpeccably
p4590
aVabounds
p4591
aVimpeccable
p4592
aVsteals
p4593
aVdestruction
p4594
aVrift
p4595
aVscarcely
p4596
aVashley
p4597
aVplacating
p4598
aVrife
p4599
aVdharma
p4600
aVinsurmountable
p4601
aVriff
p4602
aVmontages
p4603
aVdrowns
p4604
aVashlee
p4605
aVfactness
p4606
aVstagelights
p4607
aVwarlord
p4608
aVadvertiser
p4609
aVdiscord
p4610
aVincreasingly
p4611
aVsofia
p4612
aVweekend
p4613
aVbatters
p4614
aVbondian
p4615
aVdistant
p4616
aVadvertised
p4617
aVhess
p4618
aVfemme
p4619
aVvcrs
p4620
aVliken
p4621
aVnarcolepsy
p4622
aVmiramax
p4623
aVmorgue
p4624
aVballoons
p4625
aVashman
p4626
aVdisappearance
p4627
aVpropelled
p4628
aVbefriending
p4629
aVbottoms
p4630
aVkeely
p4631
aVintersection
p4632
aVloss
p4633
aVlincoln
p4634
aVfernanda
p4635
aVnecessary
p4636
aVlost
p4637
aVsomersets
p4638
aVfernando
p4639
aVdisallows
p4640
aVgangsters
p4641
aVpayments
p4642
aVlose
p4643
aVrota
p4644
aVrote
p4645
aVtrucked
p4646
aVrevisits
p4647
aVglare
p4648
aVschmaltzfest
p4649
aVlibrary
p4650
aVleers
p4651
aVtrucker
p4652
aVhome
p4653
aVleery
p4654
aVarmour
p4655
aVpinpoint
p4656
aVoverlay
p4657
aVsteaming
p4658
aVbroad
p4659
aVobjected
p4660
aVgrinding
p4661
aVcradle
p4662
aVmutation
p4663
aVwendy
p4664
aVsweepstakes
p4665
aVwendt
p4666
aVfanny
p4667
aVdemonstrated
p4668
aVlimitations
p4669
aVreaching
p4670
aVreza
p4671
aVclutterbuck
p4672
aVhurls
p4673
aVpulpy
p4674
aVrefuge
p4675
aVblythe
p4676
aVnightclub
p4677
aVmaladjustment
p4678
aVpistols
p4679
aVcarolyn
p4680
aVpreviously
p4681
aVdumfounded
p4682
aVdraggy
p4683
aVrestatement
p4684
aVpervious
p4685
aVpointless
p4686
aVhmmmmm
p4687
aVadditional
p4688
aVthirteeth
p4689
aVproclamations
p4690
aVnorth
p4691
aVunconcious
p4692
aVterrrible
p4693
aVtriangular
p4694
aVgait
p4695
aVsquirmy
p4696
aVgain
p4697
aVgail
p4698
aVsprinkling
p4699
aVhighest
p4700
aVminutely
p4701
aVkahlberg
p4702
aVfeelgood
p4703
aVrumba
p4704
aVsuggestively
p4705
aVitis
p4706
aVdisplay
p4707
aVurging
p4708
aVmarketplace
p4709
aVuniversal
p4710
aVlinearity
p4711
aVcompromises
p4712
aVexceptionaly
p4713
aVbeats
p4714
aVjudgemental
p4715
aVkissed
p4716
aVfunctions
p4717
aVslaughterhouse
p4718
aVstarbuck
p4719
aVpropositioned
p4720
aVpresaged
p4721
aVspellbinding
p4722
aVtrepidations
p4723
aVgesserits
p4724
aVfinch
p4725
aVblunders
p4726
aVstar
p4727
aVtraditionalist
p4728
aVstay
p4729
aVstag
p4730
aVfoil
p4731
aVstab
p4732
aVadditionally
p4733
aVstan
p4734
aVphosphorus
p4735
aVshuns
p4736
aVparole
p4737
aVatheist
p4738
aVlughnasa
p4739
aVatheism
p4740
aVinterrogative
p4741
aVwatercolors
p4742
aVchiming
p4743
aVforeshadowing
p4744
aVindirectly
p4745
aVimax
p4746
aVaided
p4747
aVgester
p4748
aVplagiarisms
p4749
aVfolklore
p4750
aVunsheathes
p4751
aVwhoops
p4752
aVseidler
p4753
aVwhoopi
p4754
aVknell
p4755
aVperverted
p4756
aVaides
p4757
aVrenfro
p4758
aVschmuck
p4759
aVunfeeling
p4760
aVbuddy
p4761
aVaug
p4762
aVtremors
p4763
aVglitteratti
p4764
aVswan
p4765
aVdisability
p4766
aVnanobombs
p4767
aVswat
p4768
aVswap
p4769
aVkidman
p4770
aVoffending
p4771
aVrecycle
p4772
aVaux
p4773
aVsorry
p4774
aVsway
p4775
aVfists
p4776
aVvoil
p4777
aVcollaborate
p4778
aVatrice
p4779
aVvoid
p4780
aVbarenboim
p4781
aVconfederate
p4782
aVoverplay
p4783
aVcobo
p4784
aVglencoe
p4785
aVunexceptional
p4786
aVcrops
p4787
aVherbert
p4788
aVunrelated
p4789
aVtrannsferred
p4790
aVenhance
p4791
aVunifying
p4792
aVdeplorable
p4793
aVprescence
p4794
aVfalco
p4795
aVwhirlwind
p4796
aVlandlords
p4797
aVclearillusions
p4798
aVgeekiest
p4799
aVscoopfuls
p4800
aVlikely
p4801
aVhuffing
p4802
aVtangential
p4803
aVsubordinate
p4804
aVkidnap
p4805
aVjordon
p4806
aVghandi
p4807
aVspokesman
p4808
aVlapsing
p4809
aVfoodstuffs
p4810
aVaborginal
p4811
aVhelmets
p4812
aVmeg
p4813
aVmea
p4814
aVmel
p4815
aVmen
p4816
aVdisposable
p4817
aVweirdly
p4818
aVmet
p4819
aVmunson
p4820
aVrheinhold
p4821
aVmer
p4822
aVpaquin
p4823
aVmey
p4824
aVmex
p4825
aVsalvageable
p4826
aVoozes
p4827
aVmitchell
p4828
aVoozed
p4829
aVchrysler
p4830
aVlucrative
p4831
aVrafting
p4832
aVintrigue
p4833
aVjoshua
p4834
aVfantastic
p4835
aVheeled
p4836
aVfacepaint
p4837
aVslices
p4838
aVlatifah
p4839
aVobjectively
p4840
aVsliced
p4841
aVbumpy
p4842
aVmisfortunes
p4843
aVguests
p4844
aVjackets
p4845
aVcaerthan
p4846
aVtutelage
p4847
aVtertiary
p4848
aVrohde
p4849
aVspaniards
p4850
aVvoters
p4851
aVlightsaber
p4852
aVrobertson
p4853
aVmckinney
p4854
aVmailheart
p4855
aVschroeder
p4856
aVschrader
p4857
aVunder
p4858
aVdogma
p4859
aVberlin
p4860
aVdogme
p4861
aVmovie_
p4862
aVdefecated
p4863
aVrool
p4864
aVroom
p4865
aVtrots
p4866
aVrood
p4867
aVroof
p4868
aVmovies
p4869
aVexploitative
p4870
aVmoview
p4871
aVexceptions
p4872
aVcylk
p4873
aVroot
p4874
aVrochefort
p4875
aVclimax
p4876
aVstressing
p4877
aVdownsides
p4878
aVfoods
p4879
aVsidequel
p4880
aVperformace
p4881
aVcushing
p4882
aVloathe
p4883
aVautonomy
p4884
aVtitular
p4885
aVelicited
p4886
aVamazing
p4887
aVgordon
p4888
aVchaja
p4889
aVblanks
p4890
aVbelievers
p4891
aVmanuals
p4892
aVvicious
p4893
aVegon
p4894
aVegos
p4895
aVschoolchildren
p4896
aVlifesaving
p4897
aVthird
p4898
aVdescends
p4899
aVfictitious
p4900
aVgoodbye
p4901
aVmeekness
p4902
aVoperate
p4903
aVathletes
p4904
aVmacks
p4905
aVshay
p4906
aVbendrix
p4907
aVinconclusive
p4908
aVdrumlin
p4909
aVmumbo
p4910
aVfable
p4911
aVfellas
p4912
aVbudding
p4913
aVwindshield
p4914
aVbefore
p4915
aVshawnee
p4916
aVpersonal
p4917
aVcrew
p4918
aVsprays
p4919
aVpersonas
p4920
aVchatty
p4921
aVschmidt
p4922
aVconfidently
p4923
aVshag
p4924
aVgunning
p4925
aVanij
p4926
aVcombination
p4927
aVmarsters
p4928
aVrunny
p4929
aVglazer
p4930
aVcaterpillar
p4931
aVglazed
p4932
aVimprisoning
p4933
aVdownright
p4934
aVastor
p4935
aVsoylent
p4936
aVleonor
p4937
aVarrested
p4938
aVcumming
p4939
aVsuperficiality
p4940
aVmccall
p4941
aVdiscipline
p4942
aVharried
p4943
aVlofty
p4944
aVcalmly
p4945
aVbarletta
p4946
aVallyson
p4947
aVpostapocalyptic
p4948
aVaide
p4949
aVused
p4950
aVtrading
p4951
aVforgot
p4952
aVaids
p4953
aVcomedies
p4954
aVpostman
p4955
aVmerchants
p4956
aVhypnotherapist
p4957
aVoppressors
p4958
aVmandy
p4959
aVlurks
p4960
aVaffords
p4961
aVwaaaaay
p4962
aVcorman
p4963
aVprojectionist
p4964
aVresume
p4965
aVtransitory
p4966
aVbarracks
p4967
aVunselfconsciously
p4968
aVlensky
p4969
aVtabasco
p4970
aVdims
p4971
aVchortle
p4972
aVglued
p4973
aVcosmic
p4974
aVpunctuated
p4975
aVleila
p4976
aVpunctuates
p4977
aVfeds
p4978
aVscreenwriterly
p4979
aVenraged
p4980
aVduplicitous
p4981
aVfictions
p4982
aVmctiernan
p4983
aVkaela
p4984
aVoracles
p4985
aVhaunting
p4986
aVfloors
p4987
aVstoolie
p4988
aVdownside
p4989
aVenrages
p4990
aVunpopped
p4991
aVimmensely
p4992
aVjp3
p4993
aVjp2
p4994
aVintercut
p4995
aVmisusing
p4996
aVhawks
p4997
aVshiver
p4998
aVgarry
p4999
aVburgess
p5000
a.